 a

 Timestamp is 69920ce2 (Sun Feb 15 21:13:54 2026)

 Preferred load address is 0000000140000000

 Start         Length     Name                   Class
 0001:00000000 0001011bH .text                   CODE
 0002:00000000 00001de0H .rdata                  DATA
 0003:00000000 000000e4H .data                   DATA
 0003:000000e4 000d7c86H .bss                    DATA
 0004:00000000 00000222H .data                   DATA

  Address         Publics by Value              Rva+Base               Lib:Object

 0001:00000000       dllPauseWorker             0000000140001000     .-dll-await_worker.o
 0001:000000b0       dllCallObject              00000001400010b0     .-dll-call_object.o
 0001:00000130       dllStartNewLocalWorker     0000000140001130     .-dll-call_object.o
 0001:00000270       dllExecuteWorker           0000000140001270     .-dll-execute_worker.o
 0001:00000e80       gpuPauseWorker             0000000140001e80     .-gpu-await_worker.o
 0001:00000f30       gpuCallObject              0000000140001f30     .-gpu-call_object.o
 0001:00000fb0       gpuStartNewLocalWorker     0000000140001fb0     .-gpu-call_object.o
 0001:000010f0       gpuExecuteWorker           00000001400020f0     .-gpu-execute_worker.o
 0001:000015c0       gpuNewObjectUsingPage      00000001400025c0     .-gpu-new_object.o
 0001:000016c0       gpuNewObject               00000001400026c0     .-gpu-new_object.o
 0001:00001710       gpuPushObject              0000000140002710     .-gpu-push_object.o
 0001:00001750       gpuPushPipe                0000000140002750     .-gpu-push_object.o
 0001:00001790       gpuQueryObject             0000000140002790     .-gpu-query_object.o
 0001:000017d0       gpuQueryPipe               00000001400027d0     .-gpu-query_object.o
 0001:00001810       locNewObjectUsingPage      0000000140002810     .-loc-new_object.o
 0001:00001c60       locNewObject               0000000140002c60     .-loc-new_object.o
 0001:00001cb0       locUpdateLocalPush         0000000140002cb0     .-loc-push_object.o
 0001:00001da0       locQueryLocalObject        0000000140002da0     .-loc-query_object.o
 0001:00001f00       x64PauseWorker             0000000140002f00     .-x64-await_worker.o
 0001:00001fd0       x64CallObject              0000000140002fd0     .-x64-call_object.o
 0001:00002050       x64StartNewLocalWorker     0000000140003050     .-x64-call_object.o
 0001:00002190       x64ExecuteWorker           0000000140003190     .-x64-execute_worker.o
 0001:000021d0       x64TryStallWorker          00000001400031d0     .-x64-execute_worker.o
 0001:00002470       x64NewObjectUsingPage      0000000140003470     .-x64-new_object.o
 0001:000028d0       x64NewObjectStates         00000001400038d0     .-x64-new_object.o
 0001:00002960       x64NewObject               0000000140003960     .-x64-new_object.o
 0001:00002a50       x64UpdateLocalPush         0000000140003a50     .-x64-push_object.o
 0001:00002b40       x64OnPushObject            0000000140003b40     .-x64-push_object.o
 0001:00002bd0       x64PushObjectStates        0000000140003bd0     .-x64-push_object.o
 0001:00002cd0       x64PushObject              0000000140003cd0     .-x64-push_object.o
 0001:00002f40       x64PushPipe                0000000140003f40     .-x64-push_object.o
 0001:00002f70       x64QueryLocalObject        0000000140003f70     .-x64-query_object.o
 0001:000030d0       x64OnQueryObject           00000001400040d0     .-x64-query_object.o
 0001:000031a0       x64QueryObjectStates       00000001400041a0     .-x64-query_object.o
 0001:000032b0       x64QueryObject             00000001400042b0     .-x64-query_object.o
 0001:000034b0       x64QueryPipe               00000001400044b0     .-x64-query_object.o
 0001:000034e0       x64SleepStates             00000001400044e0     .-x64-sleep.o
 0001:00003540       x64Sleep                   0000000140004540     .-x64-sleep.o
 0001:000035e0       equal_bytes                00000001400045e0     .-api.o
 0001:000036e0       GetHashtableNoLock         00000001400046e0     .-api.o
 0001:000038b0       SetHashtableNoLock         00000001400048b0     .-api.o
 0001:00003bb0       GetHashtable               0000000140004bb0     .-api.o
 0001:00003c10       SetHashtable               0000000140004c10     .-api.o
 0001:00003c60       InitInternalStructures     0000000140004c60     .-api.o
 0001:00003fa0       castOnQueryObject          0000000140004fa0     .-cast_provider.o
 0001:00004160       anyCastStates              0000000140005160     .-cast_provider.o
 0001:00005190       anyCastProvider            0000000140006190     .-cast_provider.o
 0001:00005380       init_gpu_subsystem         0000000140006380     .-gpu_subsystem.o
 0001:00006ad0       gpuBuildFromText           0000000140007ad0     .-gpu_subsystem.o
 0001:00006e20       gpuAlloc                   0000000140007e20     .-gpu_subsystem.o
 0001:00006e60       gpuRun                     0000000140007e60     .-gpu_subsystem.o
 0001:00006f10       gpuFinishQueuesOnPlatform  0000000140007f10     .-gpu_subsystem.o
 0001:00006f90       gpuFinishQueue             0000000140007f90     .-gpu_subsystem.o
 0001:00006fd0       StartInitialProcess        0000000140007fd0     .-hive_entry.o
 0001:000071e0       is_less                    00000001400081e0     .-queue.o
 0001:00007210       push_up                    0000000140008210     .-queue.o
 0001:00007360       push_down                  0000000140008360     .-queue.o
 0001:00007530       queue_init                 0000000140008530     .-queue.o
 0001:00007600       queue_enqueue              0000000140008600     .-queue.o
 0001:00007710       queue_extract              0000000140008710     .-queue.o
 0001:000078f0       b_send                     00000001400088f0     .-remote.o
 0001:00007a10       b_flush                    0000000140008a10     .-remote.o
 0001:00007a60       GetConnectionById          0000000140008a60     .-remote.o
 0001:00007af0       ConfirmPage                0000000140008af0     .-remote.o
 0001:00007b80       ConfirmID                  0000000140008b80     .-remote.o
 0001:00007bd0       HandleNewConnection        0000000140008bd0     .-remote.o
 0001:00007e60       UpdateWaitingPush          0000000140008e60     .-remote.o
 0001:000080a0       AnswerPushObject           00000001400090a0     .-remote.o
 0001:00008150       SendPageAllocationConfirm  0000000140009150     .-remote.o
 0001:000081d0       SendIDConfirm              00000001400091d0     .-remote.o
 0001:00008250       RedirectBroadcastQuery     0000000140009250     .-remote.o
 0001:000083b0       RedirectBroadcastIDQuery   00000001400093b0     .-remote.o
 0001:00008510       ConfirmConnection          0000000140009510     .-remote.o
 0001:00008770       InitiateConnection         0000000140009770     .-remote.o
 0001:00008bc0       RequestMemoryPage          0000000140009bc0     .-remote.o
 0001:00008cc0       RequestServerId            0000000140009cc0     .-remote.o
 0001:00008db0       AnswerQueryObject          0000000140009db0     .-remote.o
 0001:00008eb0       AnswerRequestObjectPath    0000000140009eb0     .-remote.o
 0001:00008fd0       RequestObjectPathBroadcast 0000000140009fd0     .-remote.o
 0001:000091d0       AnswerRequestPathToID      000000014000a1d0     .-remote.o
 0001:000092f0       RequestPathToIDBroadcast   000000014000a2f0     .-remote.o
 0001:000094f0       RequestObjectGet           000000014000a4f0     .-remote.o
 0001:00009610       RequestObjectSet           000000014000a610     .-remote.o
 0001:000097d0       StartNewWorkerRemote       000000014000a7d0     .-remote.o
 0001:000098f0       SendHiveState              000000014000a8f0     .-remote.o
 0001:00009a70       start_remote_subsystem     000000014000aa70     .-remote.o
 0001:0000c2c0       memset                     000000014000d2c0     .-runtime_lib.o
 0001:0000c320       memcpy                     000000014000d320     .-runtime_lib.o
 0001:0000c390       myMalloc                   000000014000d390     .-runtime_lib.o
 0001:0000c3e0       myPrintf                   000000014000d3e0     .-runtime_lib.o
 0001:0000c950       myRealloc                  000000014000d950     .-runtime_lib.o
 0001:0000c9b0       myFree                     000000014000d9b0     .-runtime_lib.o
 0001:0000c9f0       myAtoll                    000000014000d9f0     .-runtime_lib.o
 0001:0000cb30       get_char                   000000014000db30     .-runtime_lib.o
 0001:0000cc10       myScanI64                  000000014000dc10     .-runtime_lib.o
 0001:0000cca0       myScanS                    000000014000dca0     .-runtime_lib.o
 0001:0000cda0       PrintI64                   000000014000dda0     .-runtime_lib.o
 0001:0000ce70       PrintI64H                  000000014000de70     .-runtime_lib.o
 0001:0000cf10       Print2H                    000000014000df10     .-runtime_lib.o
 0001:0000cfb0       assertion_failure          000000014000dfb0     .-runtime_lib.o
 0001:0000d000       myAbs                      000000014000e000     .-runtime_lib.o
 0001:0000d030       MicrosecondsToTicks        000000014000e030     .-runtime_lib.o
 0001:0000d050       TicksToMicroseconds        000000014000e050     .-runtime_lib.o
 0001:0000d070       GetTicks                   000000014000e070     .-runtime_lib.o
 0001:0000d090       SheduleTimeoutFromNow      000000014000e090     .-runtime_lib.o
 0001:0000d0d0       init_lib                   000000014000e0d0     .-runtime_lib.o
 0001:0000d120       RegisterObjectWithId       000000014000e120     .-runtime.o
 0001:0000d150       GetNewObjectId             000000014000e150     .-runtime.o
 0001:0000d240       universalPauseWorker       000000014000e240     .-runtime.o
 0001:0000d2e0       universalUpdateLocalPush   000000014000e2e0     .-runtime.o
 0001:0000d340       UpdateFromQueryResult      000000014000e340     .-runtime.o
 0001:0000d3c0       PrintObject                000000014000e3c0     .-runtime.o
 0001:0000d4d0       WaitListWorker             000000014000e4d0     .-runtime.o
 0001:0000d520       EnqueueWorkerFromWaitList  000000014000e520     .-runtime.o
 0001:0000d5c0       UpdateWaitingWorkers       000000014000e5c0     .-runtime.o
 0001:0000d780       StartNewWorker             000000014000e780     .-runtime.o
 0001:0000da20       LoadWorker                 000000014000ea20     .-runtime.o
 0001:0000eae0       entry                      000000014000fae0     .-runtime.o
 0001:0000f170       SheduleWorker              0000000140010170     .-sheduler.o
 0001:0000f2a0       ShedulerInstance           00000001400102a0     .-sheduler.o
 0001:0000f390       TryStallSheduler           0000000140010390     .-sheduler.o
 0001:0000f460       MasterSheduler             0000000140010460     .-sheduler.o
 0001:0000f8d0       ShedulerStart              00000001400108d0     .-sheduler.o
 0001:0000faec       x64_fastPushObject         0000000140010aec     asm.o
 0001:0000fb55       x64_fastQueryObject        0000000140010b55     asm.o
 0001:0000fbbe       x64_fastNewObject          0000000140010bbe     asm.o
 0001:0000fc27       x64_fastCallObject         0000000140010c27     asm.o
 0001:0000fc90       x64_fastPushPipe           0000000140010c90     asm.o
 0001:0000fcf9       x64_fastQueryPipe          0000000140010cf9     asm.o
 0001:0000fd62       x64_fastSleep              0000000140010d62     asm.o
 0001:0000fdcb       gpu_fastNewObject          0000000140010dcb     asm.o
 0001:0000fe34       gpu_fastCallObject         0000000140010e34     asm.o
 0001:0000fe9d       loc_fastNewObject          0000000140010e9d     asm.o
 0001:0000ff06       dll_fastCallObject         0000000140010f06     asm.o
 0001:0000ff6f       any_fastCastProvider       0000000140010f6f     asm.o
 0001:0000ffd8       x64AsmExecuteWorker        0000000140010fd8     asm.o
 0001:0001003a       setjmpUN                   000000014001103a     asm.o
 0001:0001006d       longjmpUN                  000000014001106d     asm.o
 0001:00010096       DllCall                    0000000140011096     asm.o
 0001:00010120       GdiSetBatchLimit           0000000140011120     gdi32:GDI32.dll
 0001:00010130       CommandLineToArgvW         0000000140011130     shell32:SHELL32.dll
 0001:00010140       AcquireSRWLockExclusive    0000000140011140     kernel32:KERNEL32.dll
 0001:00010150       AcquireSRWLockShared       0000000140011150     kernel32:KERNEL32.dll
 0001:00010160       CloseHandle                0000000140011160     kernel32:KERNEL32.dll
 0001:00010170       CreateEventW               0000000140011170     kernel32:KERNEL32.dll
 0001:00010180       CreateFileW                0000000140011180     kernel32:KERNEL32.dll
 0001:00010190       CreateIoCompletionPort     0000000140011190     kernel32:KERNEL32.dll
 0001:000101a0       CreateThread               00000001400111a0     kernel32:KERNEL32.dll
 0001:000101b0       ExitProcess                00000001400111b0     kernel32:KERNEL32.dll
 0001:000101c0       GetCommandLineW            00000001400111c0     kernel32:KERNEL32.dll
 0001:000101d0       GetConsoleMode             00000001400111d0     kernel32:KERNEL32.dll
 0001:000101e0       GetFileSizeEx              00000001400111e0     kernel32:KERNEL32.dll
 0001:000101f0       GetLastError               00000001400111f0     kernel32:KERNEL32.dll
 0001:00010200       GetProcAddress             0000000140011200     kernel32:KERNEL32.dll
 0001:00010210       GetProcessHeap             0000000140011210     kernel32:KERNEL32.dll
 0001:00010220       GetQueuedCompletionStatus  0000000140011220     kernel32:KERNEL32.dll
 0001:00010230       GetStdHandle               0000000140011230     kernel32:KERNEL32.dll
 0001:00010240       GetThreadContext           0000000140011240     kernel32:KERNEL32.dll
 0001:00010250       HeapAlloc                  0000000140011250     kernel32:KERNEL32.dll
 0001:00010260       HeapFree                   0000000140011260     kernel32:KERNEL32.dll
 0001:00010270       HeapReAlloc                0000000140011270     kernel32:KERNEL32.dll
 0001:00010280       LoadLibraryA               0000000140011280     kernel32:KERNEL32.dll
 0001:00010290       MultiByteToWideChar        0000000140011290     kernel32:KERNEL32.dll
 0001:000102a0       QueryPerformanceCounter    00000001400112a0     kernel32:KERNEL32.dll
 0001:000102b0       QueryPerformanceFrequency  00000001400112b0     kernel32:KERNEL32.dll
 0001:000102c0       ReadConsoleW               00000001400112c0     kernel32:KERNEL32.dll
 0001:000102d0       ReadFile                   00000001400112d0     kernel32:KERNEL32.dll
 0001:000102e0       ReleaseSRWLockExclusive    00000001400112e0     kernel32:KERNEL32.dll
 0001:000102f0       ReleaseSRWLockShared       00000001400112f0     kernel32:KERNEL32.dll
 0001:00010300       ResumeThread               0000000140011300     kernel32:KERNEL32.dll
 0001:00010310       SetEvent                   0000000140011310     kernel32:KERNEL32.dll
 0001:00010320       SetThreadContext           0000000140011320     kernel32:KERNEL32.dll
 0001:00010330       Sleep                      0000000140011330     kernel32:KERNEL32.dll
 0001:00010340       SuspendThread              0000000140011340     kernel32:KERNEL32.dll
 0001:00010350       TlsAlloc                   0000000140011350     kernel32:KERNEL32.dll
 0001:00010360       TlsFree                    0000000140011360     kernel32:KERNEL32.dll
 0001:00010370       TlsGetValue                0000000140011370     kernel32:KERNEL32.dll
 0001:00010380       TlsSetValue                0000000140011380     kernel32:KERNEL32.dll
 0001:00010390       TryAcquireSRWLockExclusive 0000000140011390     kernel32:KERNEL32.dll
 0001:000103a0       VirtualAlloc               00000001400113a0     kernel32:KERNEL32.dll
 0001:000103b0       WaitForMultipleObjects     00000001400113b0     kernel32:KERNEL32.dll
 0001:000103c0       WaitForSingleObject        00000001400113c0     kernel32:KERNEL32.dll
 0001:000103d0       WriteConsoleW              00000001400113d0     kernel32:KERNEL32.dll
 0001:000103e0       BCryptGenRandom            00000001400113e0     bcrypt:bcrypt.dll
 0001:000103f0       WSAGetLastError            00000001400113f0     ws2_32:WS2_32.dll
 0001:00010400       WSARecv                    0000000140011400     ws2_32:WS2_32.dll
 0001:00010410       WSAStartup                 0000000140011410     ws2_32:WS2_32.dll
 0001:00010420       accept                     0000000140011420     ws2_32:WS2_32.dll
 0001:00010430       bind                       0000000140011430     ws2_32:WS2_32.dll
 0001:00010440       closesocket                0000000140011440     ws2_32:WS2_32.dll
 0001:00010450       connect                    0000000140011450     ws2_32:WS2_32.dll
 0001:00010460       freeaddrinfo               0000000140011460     ws2_32:WS2_32.dll
 0001:00010470       getaddrinfo                0000000140011470     ws2_32:WS2_32.dll
 0001:00010480       getsockname                0000000140011480     ws2_32:WS2_32.dll
 0001:00010490       htons                      0000000140011490     ws2_32:WS2_32.dll
 0001:000104a0       listen                     00000001400114a0     ws2_32:WS2_32.dll
 0001:000104b0       ntohs                      00000001400114b0     ws2_32:WS2_32.dll
 0001:000104c0       send                       00000001400114c0     ws2_32:WS2_32.dll
 0001:000104d0       setsockopt                 00000001400114d0     ws2_32:WS2_32.dll
 0001:000104e0       socket                     00000001400114e0     ws2_32:WS2_32.dll
 0001:000104f0       clBuildProgram             00000001400114f0     OpenCL:OpenCL.dll
 0001:00010500       clCreateBuffer             0000000140011500     OpenCL:OpenCL.dll
 0001:00010510       clCreateCommandQueueWithProperties 0000000140011510     OpenCL:OpenCL.dll
 0001:00010520       clCreateContext            0000000140011520     OpenCL:OpenCL.dll
 0001:00010530       clCreateKernel             0000000140011530     OpenCL:OpenCL.dll
 0001:00010540       clCreateProgramWithSource  0000000140011540     OpenCL:OpenCL.dll
 0001:00010550       clEnqueueNDRangeKernel     0000000140011550     OpenCL:OpenCL.dll
 0001:00010560       clEnqueueReadBuffer        0000000140011560     OpenCL:OpenCL.dll
 0001:00010570       clEnqueueWriteBuffer       0000000140011570     OpenCL:OpenCL.dll
 0001:00010580       clFinish                   0000000140011580     OpenCL:OpenCL.dll
 0001:00010590       clGetDeviceIDs             0000000140011590     OpenCL:OpenCL.dll
 0001:000105a0       clGetDeviceInfo            00000001400115a0     OpenCL:OpenCL.dll
 0001:000105b0       clGetKernelArgInfo         00000001400115b0     OpenCL:OpenCL.dll
 0001:000105c0       clGetPlatformIDs           00000001400115c0     OpenCL:OpenCL.dll
 0001:000105d0       clGetPlatformInfo          00000001400115d0     OpenCL:OpenCL.dll
 0001:000105e0       clGetProgramBuildInfo      00000001400115e0     OpenCL:OpenCL.dll
 0001:000105f0       clSetKernelArg             00000001400115f0     OpenCL:OpenCL.dll
 0002:00000014       ??_C@_1FE@MNCEKKEL@?$AAE?$AAr?$AAr?$AAo?$AAr?$AA?3?$AA?5?$AAU?$AAN?$AAK?$AAN?$AAO?$AAW?$AAN?$AA?5?$AAp?$AAr?$AAo?$AAv?$AAi?$AAd?$AAe?$AAr?$AA?5?$AA?$CF?$AAl?$AAl?$AAd?$AA?5?$AAi?$AAn?$AA?5@ 0000000140012014     .-dll-execute_worker.o
 0002:00000068       ??_C@_1HO@GIMLMCLD@?$AAr?$AAe?$AAt?$AAu?$AAr?$AAn?$AAe?$AAd?$AA?5?$AA?$CL?$AA?5?$AAE?$AAr?$AAr?$AAo?$AAr?$AA?$DN?$AA?$CF?$AAl?$AAl?$AAd?$AA?5?$AA?$FL?$AAb?$AAe?$AAf?$AAo?$AAr?$AAe?$AA?5?$AAc?$AAa@ 0000000140012068     .-dll-execute_worker.o
 0002:000000e6       ??_C@_1DO@MBJBKNM@?$AAE?$AAr?$AAr?$AAo?$AAr?$AA?3?$AA?5?$AAa?$AAt?$AA?5?$AAc?$AAl?$AAS?$AAe?$AAt?$AAK?$AAe?$AAr?$AAn?$AAe?$AAl?$AAA?$AAr?$AAg?$AA?5?$AA?$CF?$AAl?$AAl?$AAd?$AA?6?$AA?$AA@ 00000001400120e6     .-gpu-execute_worker.o
 0002:00000124       ??_C@_1EO@KIFHHFHO@?$AAE?$AAr?$AAr?$AAo?$AAr?$AA?3?$AA?5?$AAa?$AAt?$AA?5?$AAc?$AAl?$AAE?$AAn?$AAq?$AAu?$AAe?$AAu?$AAe?$AAN?$AAD?$AAR?$AAa?$AAn?$AAg?$AAe?$AAK?$AAe?$AAr?$AAn?$AAe?$AAl@ 0000000140012124     .-gpu-execute_worker.o
 0002:00000172       ??_C@_1DO@PIAGAENK@?$AAE?$AAR?$AAR?$AAO?$AAR?$AA?3?$AA?5?$AAg?$AAp?$AAu?$AAA?$AAl?$AAl?$AAo?$AAc?$AA?5?$AAf?$AAa?$AAi?$AAl?$AAe?$AAd?$AA?5?$AA?$FL?$AA?$CF?$AAl?$AAl?$AAd?$AA?$FN?$AA?6?$AA?$AA@ 0000000140012172     .-gpu-new_object.o
 0002:000001b0       ??_C@_1BG@LMPFNDF@?$AAr?$AAe?$AAs?$AAu?$AAl?$AAt?$AA?5?$AA?$CF?$AAp?$AA?6?$AA?$AA@ 00000001400121b0     .-gpu-new_object.o
 0002:000001c6       ??_C@_1FM@LBBNKNII@?$AAE?$AAR?$AAR?$AAO?$AAR?$AA?3?$AA?5?$AAP?$AAi?$AAp?$AAe?$AAs?$AA?5?$AAa?$AAr?$AAe?$AA?5?$AAu?$AAn?$AAs?$AAu?$AAp?$AAp?$AAo?$AAr?$AAt?$AAe?$AAd?$AA?5?$AAo?$AAn?$AA?5@ 00000001400121c6     .-gpu-new_object.o
 0002:00000222       ??_C@_1GM@BNFAKJM@?$AAE?$AAR?$AAR?$AAO?$AAR?$AA?3?$AA?5?$AAP?$AAi?$AAp?$AAe?$AAs?$AA?5?$AAa?$AAr?$AAe?$AA?5?$AAu?$AAn?$AAs?$AAu?$AAp?$AAp?$AAo?$AAr?$AAt?$AAe?$AAd?$AA?5?$AAo?$AAn?$AA?5@ 0000000140012222     .-gpu-new_object.o
 0002:0000028e       ??_C@_1EG@FBJBJMFK@?$AAN?$AAO?$AAT?$AA?5?$AAS?$AAU?$AAP?$AAP?$AAO?$AAR?$AAT?$AAE?$AAD?$AA?3?$AA?5?$AAp?$AAu?$AAs?$AAh?$AA?5?$AAi?$AAn?$AA?5?$AAg?$AAp?$AAu?$AA?5?$AAo?$AAb?$AAj?$AAe?$AAc@ 000000014001228e     .-gpu-push_object.o
 0002:000002d4       ??_C@_1FE@GJLEMBH@?$AAN?$AAO?$AAT?$AA?5?$AAS?$AAU?$AAP?$AAP?$AAO?$AAR?$AAT?$AAE?$AAD?$AA?3?$AA?5?$AAp?$AAu?$AAs?$AAh?$AA?5?$AAi?$AAn?$AA?5?$AAg?$AAp?$AAu?$AA?5?$AAo?$AAb?$AAj?$AAe?$AAc@ 00000001400122d4     .-gpu-push_object.o
 0002:00000328       ??_C@_1EI@EPHKLIAN@?$AAN?$AAO?$AAT?$AA?5?$AAS?$AAU?$AAP?$AAP?$AAO?$AAR?$AAT?$AAE?$AAD?$AA?3?$AA?5?$AAq?$AAu?$AAe?$AAr?$AAy?$AA?5?$AAi?$AAn?$AA?5?$AAg?$AAp?$AAu?$AA?5?$AAo?$AAb?$AAj?$AAe@ 0000000140012328     .-gpu-query_object.o
 0002:00000370       ??_C@_1FG@PCBNEEAC@?$AAN?$AAO?$AAT?$AA?5?$AAS?$AAU?$AAP?$AAP?$AAO?$AAR?$AAT?$AAE?$AAD?$AA?3?$AA?5?$AAq?$AAu?$AAe?$AAr?$AAy?$AA?5?$AAi?$AAn?$AA?5?$AAg?$AAp?$AAu?$AA?5?$AAo?$AAb?$AAj?$AAe@ 0000000140012370     .-gpu-query_object.o
 0002:00000458       ??_C@_1FE@BCAGMINK@?$AAE?$AAr?$AAr?$AAo?$AAr?$AA?3?$AA?5?$AAn?$AAo?$AA?5?$AAk?$AAn?$AAo?$AAw?$AAn?$AA?5?$AAs?$AAi?$AAz?$AAe?$AA?5?$AAf?$AAo?$AAr?$AA?5?$AAn?$AAo?$AAt?$AA?5?$AAa?$AAr?$AAr@ 0000000140012458     .-cast_provider.o
 0002:000004ac       ??_C@_1FK@KDAFABDO@?$AAE?$AAr?$AAr?$AAo?$AAr?$AA?3?$AA?5?$AAl?$AAo?$AAc?$AAa?$AAl?$AA?5?$AAo?$AAb?$AAj?$AAe?$AAc?$AAt?$AA?5?$AAw?$AAa?$AAs?$AA?5?$AAr?$AAe?$AAm?$AAo?$AAv?$AAe?$AAd?$AA?5@ 00000001400124ac     .-cast_provider.o
 0002:00000506       ??_C@_1FO@HMOHPFHI@?$AAE?$AAr?$AAr?$AAo?$AAr?$AA?5?$AAh?$AAa?$AAp?$AAp?$AAe?$AAn?$AA?5?$AAw?$AAh?$AAi?$AAl?$AAe?$AA?5?$AAc?$AAl?$AAE?$AAn?$AAq?$AAu?$AAe?$AAu?$AAe?$AAR?$AAe?$AAa?$AAd@ 0000000140012506     .-cast_provider.o
 0002:00000564       ??_C@_1GA@EEKPNAGK@?$AAE?$AAr?$AAr?$AAo?$AAr?$AA?5?$AAh?$AAa?$AAp?$AAp?$AAe?$AAn?$AA?5?$AAw?$AAh?$AAi?$AAl?$AAe?$AA?5?$AAc?$AAl?$AAE?$AAn?$AAq?$AAu?$AAe?$AAu?$AAe?$AAW?$AAr?$AAi?$AAt@ 0000000140012564     .-cast_provider.o
 0002:000005c4       ??_C@_1BM@OBHKMKPP@?$AAR?$AAe?$AAt?$AAu?$AAr?$AAn?$AA?3?$AA?5?$AA?$CF?$AAl?$AAl?$AAd?$AA?6?$AA?$AA@ 00000001400125c4     .-cast_provider.o
 0002:000005e0       ??_C@_1EC@IPADNJOO@?$AAc?$AAo?$AAn?$AAv?$AAe?$AAr?$AAt?$AA?5?$AA?$CF?$AAp?$AA?5?$AA?$FL?$AAt?$AAy?$AAp?$AAe?$AAs?$AA?5?$AA?$CF?$AAl?$AAl?$AAd?$AA?5?$AA?9?$AA?$DO?$AA?5?$AA?$CF?$AAl?$AAl?$AAd?$AA?$FN?$AA?6@ 00000001400125e0     .-cast_provider.o
 0002:00000622       ??_C@_1IA@HIJJNPCH@?$AAE?$AAR?$AAR?$AAO?$AAR?$AA?3?$AA?5?$AAn?$AAo?$AAt?$AA?5?$AAs?$AAu?$AAp?$AAp?$AAo?$AAr?$AAt?$AAe?$AAd?$AA?5?$AAc?$AAo?$AAn?$AAv?$AAe?$AAr?$AAs?$AAi?$AAo?$AAn?$AA?5@ 0000000140012622     .-cast_provider.o
 0002:000006a2       ??_C@_1EC@CFAEGHOO@?$AAE?$AAr?$AAr?$AAo?$AAr?$AA?5?$AAa?$AAt?$AA?5?$AAc?$AAl?$AAC?$AAr?$AAe?$AAa?$AAt?$AAe?$AAC?$AAo?$AAn?$AAt?$AAe?$AAx?$AAt?$AA?5?$AA?$FL?$AA?$CF?$AAl?$AAl?$AAd?$AA?$FN?$AA?6@ 00000001400126a2     .-gpu_subsystem.o
 0002:000006e4       ??_C@_1GI@JODPKPLM@?$AAE?$AAr?$AAr?$AAo?$AAr?$AA?5?$AAa?$AAt?$AA?5?$AAc?$AAl?$AAC?$AAr?$AAe?$AAa?$AAt?$AAe?$AAC?$AAo?$AAm?$AAm?$AAa?$AAn?$AAd?$AAQ?$AAu?$AAe?$AAu?$AAe?$AAW?$AAi?$AAt@ 00000001400126e4     .-gpu_subsystem.o
 0002:0000074c       ??_C@_0FA@OKGFDHAO@?9cl?9single?9precision?9constant?5?9c@ 000000014001274c     .-gpu_subsystem.o
 0002:0000079c       ??_C@_1DE@FJCPKFIJ@?$AAB?$AAu?$AAi?$AAl?$AAd?$AAP?$AAr?$AAo?$AAg?$AAr?$AAa?$AAm?$AA?5?$AAE?$AAr?$AAr?$AAo?$AAr?$AA?3?$AA?5?$AA?$CF?$AAl?$AAl?$AAd?$AA?6?$AA?$AA@ 000000014001279c     .-gpu_subsystem.o
 0002:000007d0       ??_C@_19PDAGFAKM@?$AA?4?$AA?4?$AA?4?$AA?6?$AA?$AA@ 00000001400127d0     .-gpu_subsystem.o
 0002:000007da       ??_C@_1CO@HIIDKPPP@?$AAB?$AAu?$AAi?$AAl?$AAd?$AAI?$AAn?$AAf?$AAo?$AA?5?$AAE?$AAr?$AAr?$AAo?$AAr?$AA?3?$AA?5?$AA?$CF?$AAl?$AAl?$AAd?$AA?6?$AA?$AA@ 00000001400127da     .-gpu_subsystem.o
 0002:00000808       ??_C@_1DA@GJKLKGNM@?$AAB?$AAu?$AAi?$AAl?$AAd?$AAI?$AAn?$AAf?$AAo?$AA2?$AA?5?$AAE?$AAr?$AAr?$AAo?$AAr?$AA?3?$AA?5?$AA?$CF?$AAl?$AAl?$AAd?$AA?6?$AA?$AA@ 0000000140012808     .-gpu_subsystem.o
 0002:00000838       ??_C@_1DA@CBNNMJJB@?$AAE?$AAr?$AAr?$AAo?$AAr?$AA?5?$AAI?$AAn?$AAf?$AAo?$AA?3?$AA?5?$AAc?$AAo?$AAd?$AAe?$AA?$DN?$AA?$CF?$AAl?$AAl?$AAd?$AA?3?$AA?6?$AA?$AA@ 0000000140012838     .-gpu_subsystem.o
 0002:00000868       ??_C@_1CA@CAEDKLHA@?$AA?$CF?$AA0?$AA2?$AAx?$AA?5?$AA?$CF?$AA0?$AA2?$AAx?$AA?5?$AA?$CF?$AA0?$AA2?$AAx?$AA?6?$AA?$AA@ 0000000140012868     .-gpu_subsystem.o
 0002:00000888       ??_C@_17MJEANDKP@?$AA?$CF?$AAs?$AA?6?$AA?$AA@ 0000000140012888     .-gpu_subsystem.o
 0002:00000890       ??_C@_1CO@DCKAPNAK@?$AAw?$AAa?$AAi?$AAt?$AAi?$AAn?$AAg?$AA?5?$AAs?$AAt?$AAa?$AAr?$AAt?$AAu?$AAp?$AA?5?$AAp?$AAa?$AAg?$AAe?$AAs?$AA?6?$AA?$AA@ 0000000140012890     .-hive_entry.o
 0002:000008be       ??_C@_1EI@OLFKDNEP@?$AAE?$AAr?$AAr?$AAo?$AAr?$AA?3?$AA?5?$AAa?$AAl?$AAl?$AAo?$AAc?$AAa?$AAt?$AAe?$AAd?$AA?5?$AAa?$AAr?$AAr?$AAa?$AAy?$AA?5?$AAi?$AAs?$AAn?$AA?8?$AAt?$AA?5?$AAl?$AAo?$AAc@ 00000001400128be     .-hive_entry.o
 0002:00000990       ??_C@_1DE@OFJFJIIH@?$AAS?$AAe?$AAr?$AAv?$AAe?$AAr?$AA?5?$AAi?$AAd?$AA?$DN?$AA?$CF?$AAl?$AAl?$AAd?$AA?5?$AAc?$AAo?$AAn?$AAf?$AAi?$AAr?$AAm?$AAe?$AAd?$AA?6?$AA?$AA@ 0000000140012990     .-remote.o
 0002:000009c4       ??_C@_1CG@DJLPCGPG@?$AAC?$AAl?$AAi?$AAe?$AAn?$AAt?$AA?5?$AAc?$AAo?$AAn?$AAn?$AAe?$AAc?$AAt?$AAe?$AAd?$AA?$CB?$AA?6?$AA?$AA@ 00000001400129c4     .-remote.o
 0002:000009ea       ??_C@_1FK@FPKJOMKP@?$AAE?$AAr?$AAr?$AAo?$AAr?$AA?3?$AA?5?$AAC?$AAo?$AAu?$AAl?$AAd?$AA?5?$AAn?$AAo?$AAt?$AA?5?$AAc?$AAo?$AAn?$AAn?$AAe?$AAc?$AAt?$AA?5?$AAt?$AAo?$AA?5?$AA?$CF?$AAs?$AA?5?$AA?$FL@ 00000001400129ea     .-remote.o
 0002:00000a44       ??_C@_1LE@PPGJDLMH@?$AA?$FL?$AAp?$AA?5?$AA?$DM?$AAp?$AAo?$AAr?$AAt?$AA?$DO?$AA?$FN?$AA?5?$AAt?$AAo?$AA?5?$AAs?$AAe?$AAl?$AAe?$AAc?$AAt?$AA?5?$AAp?$AAo?$AAr?$AAt?$AA?5?$AA?$FL?$AAc?$AA?5?$AA?$DM?$AAi?$AAp@ 0000000140012a44     .-remote.o
 0002:00000af8       ??_C@_1BO@BCIJKPCC@?$AAE?$AAn?$AAt?$AAe?$AAr?$AA?5?$AAc?$AAo?$AAm?$AAm?$AAa?$AAn?$AAd?$AA?$DO?$AA?$AA@ 0000000140012af8     .-remote.o
 0002:00000b16       ??_C@_1CK@IMAGNILG@?$AAC?$AAo?$AAn?$AAf?$AAi?$AAr?$AAm?$AAe?$AAd?$AA?5?$AAp?$AAo?$AAr?$AAt?$AA?$DN?$AA?$CF?$AAl?$AAl?$AAd?$AA?6?$AA?$AA@ 0000000140012b16     .-remote.o
 0002:00000b40       ??_C@_1DG@NNMMEGKD@?$AAS?$AAe?$AAl?$AAe?$AAc?$AAt?$AAe?$AAd?$AA?5?$AAc?$AAo?$AAn?$AAn?$AAe?$AAc?$AAt?$AA?5?$AAc?$AAo?$AAm?$AAm?$AAa?$AAn?$AAd?$AA?4?$AA?6?$AA?$AA@ 0000000140012b40     .-remote.o
 0002:00000b76       ??_C@_1CI@KPENLAE@?$AAE?$AAn?$AAt?$AAe?$AAr?$AA?5?$AAI?$AAP?$AA?5?$AAa?$AAn?$AAd?$AA?5?$AAP?$AAO?$AAR?$AAT?$AA?4?$AA?6?$AA?$AA@ 0000000140012b76     .-remote.o
 0002:00000b9e       ??_C@_1EG@CAHECGOL@?$AAT?$AAr?$AAy?$AAi?$AAn?$AAg?$AA?5?$AAt?$AAo?$AA?5?$AAc?$AAo?$AAn?$AAn?$AAe?$AAc?$AAt?$AA?5?$AAt?$AAo?$AA?5?$AA?$FL?$AA?$CF?$AAs?$AA?$FN?$AA?5?$AA?$FL?$AA?$CF?$AAs?$AA?$FN?$AA?4?$AA?4@ 0000000140012b9e     .-remote.o
 0002:00000be4       ??_C@_1DG@GLOHHOJG@?$AAT?$AAe?$AAm?$AAp?$AAo?$AAr?$AAa?$AAr?$AAy?$AA?5?$AAl?$AAo?$AAc?$AAa?$AAl?$AA_?$AAi?$AAd?$AA?5?$AA?$DN?$AA?5?$AA?$CF?$AAl?$AAl?$AAd?$AA?6?$AA?$AA@ 0000000140012be4     .-remote.o
 0002:00000c1a       ??_C@_1DC@MOJEJJIM@?$AAC?$AAo?$AAn?$AAf?$AAi?$AAg?$AAu?$AAr?$AAa?$AAt?$AAi?$AAo?$AAn?$AA?5?$AAc?$AAo?$AAn?$AAf?$AAi?$AAr?$AAm?$AAe?$AAd?$AA?6?$AA?$AA@ 0000000140012c1a     .-remote.o
 0002:00000c4c       ??_C@_1DM@PKIKMHMJ@?$AA?$FL?$AAN?$AAE?$AAT?$AAW?$AAO?$AAR?$AAK?$AA?$FN?$AA?3?$AA?5?$AAP?$AAe?$AAe?$AAr?$AA?5?$AAd?$AAi?$AAs?$AAc?$AAo?$AAn?$AAn?$AAe?$AAc?$AAt?$AAe?$AAd?$AA?6?$AA?$AA@ 0000000140012c4c     .-remote.o
 0002:00000c88       ??_C@_1FE@JBHEOMDM@?$AAc?$AAo?$AAn?$AAn?$AAe?$AAc?$AAt?$AAi?$AAo?$AAn?$AA?5?$AAw?$AAa?$AAs?$AA?5?$AAc?$AAl?$AAo?$AAs?$AAe?$AAd?$AA?4?$AA?5?$AA?$FL?$AAl?$AAo?$AAc?$AAa?$AAl?$AA_?$AAi?$AAd@ 0000000140012c88     .-remote.o
 0002:00000cdc       ??_C@_1LA@ICLCBFDH@?$AAE?$AAr?$AAr?$AAo?$AAr?$AA?3?$AA?5?$AAA?$AAP?$AAI?$AA_?$AAA?$AAN?$AAS?$AAW?$AAE?$AAR?$AA_?$AAR?$AAE?$AAQ?$AAU?$AAE?$AAS?$AAT?$AA_?$AAC?$AAO?$AAN?$AAN?$AAE?$AAC@ 0000000140012cdc     .-remote.o
 0002:00000d8c       ??_C@_1DK@EHAPFJND@?$AAs?$AAe?$AAr?$AAv?$AAe?$AAr?$AA?5?$AAs?$AAt?$AAa?$AAr?$AAt?$AAe?$AAd?$AA?5?$AAo?$AAn?$AA?5?$AAp?$AAo?$AAr?$AAt?$AA?5?$AA?$CF?$AAl?$AAl?$AAd?$AA?6?$AA?$AA@ 0000000140012d8c     .-remote.o
 0002:00000dc6       ??_C@_1CM@OOKLEHNG@?$AAg?$AAe?$AAt?$AA?5?$AAn?$AAa?$AAm?$AAe?$AA?5?$AAf?$AAa?$AAi?$AAl?$AAe?$AAd?$AA?5?$AA?$CF?$AAl?$AAl?$AAd?$AA?6?$AA?$AA@ 0000000140012dc6     .-remote.o
 0002:00000df2       ??_C@_1CG@NGNGJBNB@?$AAE?$AAr?$AAr?$AAo?$AAr?$AA?5?$AAh?$AAa?$AAp?$AAp?$AAe?$AAn?$AA?5?$AA?$CF?$AAl?$AAl?$AAd?$AA?6?$AA?$AA@ 0000000140012df2     .-remote.o
 0002:00000e18       ??_C@_1FA@MICONLJJ@?$AAE?$AAr?$AAr?$AAo?$AAr?$AA?3?$AA?5?$AAf?$AAa?$AAi?$AAl?$AAe?$AAd?$AA?5?$AAt?$AAo?$AA?5?$AAa?$AAl?$AAl?$AAo?$AAc?$AAa?$AAt?$AAe?$AA?5?$AAm?$AAe?$AAm?$AAo?$AAr?$AAy@ 0000000140012e18     .-runtime_lib.o
 0002:00000e68       ??_C@_1FE@CPMEHOGL@?$AAE?$AAr?$AAr?$AAo?$AAr?$AA?3?$AA?5?$AAf?$AAa?$AAi?$AAl?$AAe?$AAd?$AA?5?$AAt?$AAo?$AA?5?$AAr?$AAe?$AAa?$AAl?$AAl?$AAo?$AAc?$AAa?$AAt?$AAe?$AA?5?$AAm?$AAe?$AAm?$AAo@ 0000000140012e68     .-runtime_lib.o
 0002:00000ebc       ??_C@_1EI@DJFGOBAG@?$AAE?$AAr?$AAr?$AAo?$AAr?$AA?3?$AA?5?$AAf?$AAa?$AAi?$AAl?$AAe?$AAd?$AA?5?$AAt?$AAo?$AA?5?$AAf?$AAr?$AAe?$AAe?$AA?5?$AAm?$AAe?$AAm?$AAo?$AAr?$AAy?$AA?3?$AA?5?$AA?$CF?$AAl@ 0000000140012ebc     .-runtime_lib.o
 0002:00000f04       ??_C@_1CM@EJGKJCED@?$AAA?$AAs?$AAs?$AAe?$AAr?$AAt?$AAi?$AAo?$AAn?$AA?5?$AAf?$AAa?$AAi?$AAl?$AAe?$AAd?$AA?3?$AA?5?$AA?$CF?$AAs?$AA?6?$AA?$AA@ 0000000140012f04     .-runtime_lib.o
 0002:00000f30       ??_C@_1EI@GJCCEHA@?$AAF?$AAi?$AAl?$AAe?$AA?3?$AA?5?$AA?$CF?$AAs?$AA?0?$AA?5?$AAL?$AAi?$AAn?$AAe?$AA?3?$AA?5?$AA?$CF?$AAl?$AAl?$AAd?$AA?0?$AA?5?$AAF?$AAu?$AAn?$AAc?$AAt?$AAi?$AAo?$AAn?$AA?3?$AA?5@ 0000000140012f30     .-runtime_lib.o
 0002:000011ac       ??_C@_1GE@NIGCAFOK@?$AAE?$AAr?$AAr?$AAo?$AAr?$AA?3?$AA?5?$AAg?$AAp?$AAu?$AA?5?$AAw?$AAo?$AAr?$AAk?$AAe?$AAr?$AA?5?$AAd?$AAo?$AAe?$AAn?$AA?8?$AAt?$AA?5?$AAs?$AAu?$AAp?$AAp?$AAo?$AAr?$AAt@ 00000001400131ac     .-runtime.o
 0002:00001210       ??_C@_1IE@FHIKABLD@?$AAE?$AAr?$AAr?$AAo?$AAr?$AA?3?$AA?5?$AAc?$AAa?$AAn?$AA?8?$AAt?$AA?5?$AAr?$AAu?$AAn?$AA?5?$AAr?$AAe?$AAm?$AAo?$AAt?$AAe?$AA?5?$AAw?$AAo?$AAr?$AAk?$AAe?$AAr?$AA?5?$AA?$CF@ 0000000140013210     .-runtime.o
 0002:00001294       ??_C@_1HE@GOIHIEDE@?$AAE?$AAr?$AAr?$AAo?$AAr?$AA?3?$AA?5?$AAp?$AAr?$AAo?$AAv?$AAi?$AAd?$AAe?$AAr?$AA?5?$AA?$CF?$AAl?$AAl?$AAd?$AA?5?$AAd?$AAo?$AAe?$AAs?$AAn?$AA?8?$AAt?$AA?5?$AAs?$AAu?$AAp@ 0000000140013294     .-runtime.o
 0002:00001308       ??_C@_1JE@CPFCJBNI@?$AAE?$AAR?$AAR?$AAO?$AAR?$AA?3?$AA?5?$AAR?$AAu?$AAn?$AAt?$AAi?$AAm?$AAe?$AA?5?$AAe?$AAn?$AAd?$AAp?$AAo?$AAi?$AAn?$AAt?$AA?5?$AA?$CF?$AAl?$AAl?$AAd?$AA?5?$AAd?$AAo?$AAe@ 0000000140013308     .-runtime.o
 0002:0000139c       ??_C@_1HI@GNCDLKLI@?$AAE?$AAr?$AAr?$AAo?$AAr?$AA?3?$AA?5?$AAr?$AAu?$AAn?$AAt?$AAi?$AAm?$AAe?$AA?5?$AAd?$AAo?$AAe?$AAs?$AAn?$AA?8?$AAt?$AA?5?$AAs?$AAu?$AAp?$AAp?$AAo?$AAr?$AAt?$AA?5?$AAs@ 000000014001339c     .-runtime.o
 0002:00001414       ??_C@_1CI@PHCDEMOE@?$AAb?$AAu?$AAi?$AAl?$AAd?$AAi?$AAn?$AAg?$AA?5?$AAk?$AAe?$AAr?$AAn?$AAe?$AAl?$AA?4?$AA?4?$AA?4?$AA?6?$AA?$AA@ 0000000140013414     .-runtime.o
 0002:0000143c       ??_C@_04JNAIOECI@krnl?$AA@ 000000014001343c     .-runtime.o
 0002:00001442       ??_C@_1DI@MMAOAOLJ@?$AAE?$AAr?$AAr?$AAo?$AAr?$AA?3?$AA?5?$AAk?$AAe?$AAr?$AAn?$AAe?$AAl?$AA?5?$AAb?$AAu?$AAi?$AAl?$AAd?$AA?5?$AAf?$AAa?$AAi?$AAl?$AAe?$AAd?$AA?6?$AA?$AA@ 0000000140013442     .-runtime.o
 0002:0000147a       ??_C@_1EK@KKIKLCHH@?$AAG?$AAp?$AAu?$AA?5?$AAs?$AAu?$AAs?$AAs?$AAy?$AAs?$AAt?$AAe?$AAm?$AA?5?$AAi?$AAn?$AAi?$AAt?$AAi?$AAa?$AAl?$AAi?$AAz?$AAa?$AAt?$AAi?$AAo?$AAn?$AA?5?$AAf?$AAa?$AAi@ 000000014001347a     .-runtime.o
 0002:000014c4       ??_C@_1CC@DEIAIPBB@?$AA?4?$AA?4?$AA?1?$AA?4?$AA?4?$AA?1?$AA?4?$AA?4?$AA?1?$AAr?$AAe?$AAs?$AA?4?$AAb?$AAi?$AAn?$AA?$AA@ 00000001400134c4     .-runtime.o
 0002:000014e6       ??_C@_1FC@OGJDIOEJ@?$AAE?$AAr?$AAr?$AAo?$AAr?$AA?3?$AA?5?$AAc?$AAa?$AAn?$AA?8?$AAt?$AA?5?$AAo?$AAp?$AAe?$AAn?$AA?5?$AA?4?$AA?4?$AA?1?$AA?4?$AA?4?$AA?1?$AA?4?$AA?4?$AA?1?$AAr?$AAe?$AAs?$AA?4?$AAb@ 00000001400134e6     .-runtime.o
 0002:00001538       ??_C@_1EG@BBCENLFA@?$AAT?$AAh?$AAi?$AAs?$AA?5?$AAh?$AAi?$AAv?$AAe?$AA?5?$AAw?$AAi?$AAl?$AAl?$AA?5?$AAn?$AAo?$AAt?$AA?5?$AAr?$AAe?$AAa?$AAd?$AA?5?$AAa?$AAn?$AAy?$AA?5?$AAs?$AAt?$AAd?$AAi@ 0000000140013538     .-runtime.o
 0002:0000157e       ??_C@_1EG@OCFMCBJL@?$AAT?$AAh?$AAi?$AAs?$AA?5?$AAh?$AAi?$AAv?$AAe?$AA?5?$AAw?$AAi?$AAl?$AAl?$AA?5?$AAn?$AAo?$AAt?$AA?5?$AAs?$AAt?$AAo?$AAp?$AA?5?$AAe?$AAx?$AAe?$AAc?$AAu?$AAt?$AAi?$AAo@ 000000014001357e     .-runtime.o
 0002:000015c4       ??_C@_1DA@LKDLAMFA@?$AAS?$AAe?$AAt?$AA?5?$AAn?$AAu?$AAm?$AA?5?$AAt?$AAh?$AAr?$AAe?$AAa?$AAd?$AAs?$AA?5?$AA?$DN?$AA?5?$AA?$CF?$AAl?$AAl?$AAd?$AA?6?$AA?$AA@ 00000001400135c4     .-runtime.o
 0002:000015f4       ??_C@_1II@FCFHMELI@?$AAE?$AAr?$AAr?$AAo?$AAr?$AA?3?$AA?5?$AAt?$AAh?$AAi?$AAs?$AA?5?$AAb?$AAu?$AAi?$AAl?$AAd?$AA?5?$AAd?$AAo?$AAe?$AAs?$AAn?$AA?8?$AAt?$AA?5?$AAa?$AAl?$AAl?$AAo?$AAw?$AA?5@ 00000001400135f4     .-runtime.o
 0002:0000167c       ??_C@_1DE@PNGABHJK@?$AAS?$AAe?$AAt?$AA?5?$AAh?$AAi?$AAv?$AAe?$AA?5?$AAa?$AAs?$AA?5?$AAp?$AAr?$AAo?$AAt?$AAe?$AAc?$AAt?$AAo?$AAr?$AAa?$AAt?$AAe?$AA?6?$AA?$AA@ 000000014001367c     .-runtime.o
 0002:000016b0       ??_C@_1DG@MLIAHCGJ@?$AAS?$AAe?$AAt?$AA?5?$AAc?$AAh?$AAu?$AAn?$AAk?$AA?5?$AAt?$AAi?$AAm?$AAe?$AA?5?$AAt?$AAo?$AA?5?$AA?$CF?$AAl?$AAl?$AAd?$AA?5?$AAu?$AAs?$AA?6?$AA?$AA@ 00000001400136b0     .-runtime.o
 0002:000016e6       ??_C@_1EC@FNPNOOPH@?$AAU?$AAn?$AAk?$AAn?$AAo?$AAw?$AAn?$AA?5?$AAc?$AAm?$AAd?$AAl?$AAi?$AAn?$AAe?$AA?5?$AAp?$AAa?$AAr?$AAa?$AAm?$AAe?$AAt?$AAe?$AAr?$AA?3?$AA?5?$AA?$CF?$AAl?$AAl?$AAd?$AA?6@ 00000001400136e6     .-runtime.o
 0002:00001728       ??_C@_1CE@CFOOJILH@?$AAN?$AAU?$AAM?$AA_?$AAT?$AAH?$AAR?$AAE?$AAA?$AAD?$AAS?$AA?$DN?$AA?$CF?$AAl?$AAl?$AAd?$AA?6?$AA?$AA@ 0000000140013728     .-runtime.o
 0002:0000174c       ??_C@_1BI@KEMCAKCM@?$AAR?$AAu?$AAn?$AAn?$AAi?$AAn?$AAg?$AA?4?$AA?4?$AA?4?$AA?6?$AA?$AA@ 000000014001374c     .-runtime.o
 0002:00001764       ??_C@_1KG@MGKLLKBJ@?$AA?9?$AA?9?$AA?9?$AA?9?$AA?9?$AA?9?$AA?9?$AA?9?$AA?9?$AA?9?$AA?9?$AA?9?$AA?9?$AA?9?$AA?9?$AA?9?$AA?9?$AA?9?$AA?9?$AA?9?$AA?9?$AA?9?$AA?9?$AA?9?$AA?9?$AA?9?$AA?9?$AA?9?$AA?9?$AA?9?$AA?9?$AA?9@ 0000000140013764     .-runtime.o
 0002:0000180a       ??_C@_1KC@PDECPKAN@?$AA?9?$AA?9?$AA?9?$AA?9?$AA?9?$AA?9?$AA?9?$AA?9?$AA?9?$AA?9?$AA?9?$AA?9?$AA?9?$AA?9?$AA?9?$AA?9?$AA?9?$AA?9?$AA?9?$AA?9?$AA?9?$AA?9?$AA?9?$AA?9?$AA?9?$AA?9?$AA?9?$AA?9?$AA?9?$AA?9?$AA?9?$AA?9@ 000000014001380a     .-runtime.o
 0002:000018ac       ??_C@_1CE@FBEJGOMB@?$AAP?$AAr?$AAo?$AAg?$AAr?$AAa?$AAm?$AA?5?$AAf?$AAi?$AAn?$AAi?$AAs?$AAh?$AAe?$AAd?$AA?6?$AA?$AA@ 00000001400138ac     .-runtime.o
 0002:000018d0       ??_C@_1EK@FDFELEEK@?$AAR?$AAe?$AAs?$AAu?$AAl?$AAt?$AA?5?$AAp?$AAr?$AAo?$AAm?$AAi?$AAs?$AAe?$AA?5?$AAn?$AAo?$AAt?$AA?5?$AAf?$AAo?$AAu?$AAn?$AAd?$AA?5?$AAo?$AAn?$AA?5?$AAm?$AAa?$AAc?$AAh@ 00000001400138d0     .-runtime.o
 0002:0000191a       ??_C@_1DO@BFPIHEIA@?$AAP?$AAr?$AAo?$AAg?$AAr?$AAa?$AAm?$AA?5?$AAe?$AAx?$AAi?$AAt?$AAe?$AAd?$AA?5?$AAw?$AAi?$AAt?$AAh?$AA?5?$AAc?$AAo?$AAd?$AAe?$AA?5?$AA?$CF?$AAl?$AAl?$AAx?$AA?6?$AA?$AA@ 000000014001391a     .-runtime.o
 0002:00001958       ??_C@_1CK@DKIDNDNE@?$AAP?$AAr?$AAe?$AAs?$AAs?$AA?5?$AAC?$AAt?$AAr?$AAl?$AA?$CL?$AAC?$AA?5?$AAt?$AAo?$AA?5?$AAe?$AAn?$AAd?$AA?6?$AA?$AA@ 0000000140013958     .-runtime.o
 0002:00001982       ??_C@_1GO@CEANDIOF@?$AAR?$AAe?$AAs?$AAu?$AAl?$AAt?$AA?5?$AAo?$AAf?$AA?5?$AAm?$AAa?$AAi?$AAn?$AA?5?$AAf?$AAu?$AAn?$AAc?$AAt?$AAi?$AAo?$AAn?$AA?5?$AAi?$AAs?$AAn?$AA?8?$AAt?$AA?5?$AAr?$AAe@ 0000000140013982     .-runtime.o
 0002:000019f0       ??_C@_1DI@MLNAPEIE@?$AAS?$AAh?$AAe?$AAd?$AAu?$AAl?$AAe?$AAr?$AAI?$AAn?$AAs?$AAt?$AAa?$AAn?$AAc?$AAe?$AA?5?$AAc?$AAo?$AAm?$AAp?$AAl?$AAe?$AAt?$AAe?$AAd?$AA?6?$AA?$AA@ 00000001400139f0     .-sheduler.o
 0002:00001a28       ??_C@_13PPFCDPMH@?$AA?$HM?$AA?$AA@ 0000000140013a28     .-sheduler.o
 0002:00001a2c       ??_C@_1DE@BFFMGPEH@?$AA?5?$AA?5?$AA?5?$AA?5?$AA?5?$AA?5?$AA?5?$AAt?$AAh?$AAr?$AAe?$AAa?$AAd?$AA?5?$AA?$CF?$AA0?$AA2?$AAx?$AA?5?$AA?5?$AA?5?$AA?5?$AA?5?$AA?5?$AA?$HM?$AA?$AA@ 0000000140013a2c     .-sheduler.o
 0002:00001a60       ??_C@_1FG@CMFEMGFG@?$AA?5?$AA?5?$AAW?$AAa?$AAi?$AAt?$AA?5?$AA?$HM?$AA?5?$AAQ?$AAu?$AAe?$AAu?$AAe?$AA?5?$AA?$HM?$AA?5?$AAR?$AAP?$AAm?$AAi?$AAs?$AAs?$AA?5?$AA?$HM?$AA?5?$AAR?$AAO?$AAr?$AAe?$AAq?$AA?5@ 0000000140013a60     .-sheduler.o
 0002:00001ab6       ??_C@_1DA@DAJCMENO@?$AA?5?$AA?5?$AAe?$AAx?$AAe?$AAc?$AA?5?$AA?1?$AA?5?$AAd?$AAo?$AAn?$AAe?$AA?5?$AA?1?$AA?5?$AAs?$AAt?$AAa?$AAl?$AAl?$AA?5?$AA?$HM?$AA?$AA@ 0000000140013ab6     .-sheduler.o
 0002:00001ae6       ??_C@_1FG@IKPNLAIG@?$AA?5?$AA?5?$AA?5?$AA?5?$AA?5?$AA?5?$AA?5?$AA?$HM?$AA?5?$AA?5?$AA?5?$AA?5?$AA?5?$AA?5?$AA?5?$AA?$HM?$AA?5?$AA?5?$AA?5?$AA?5?$AA?5?$AA?5?$AA?5?$AA?5?$AA?$HM?$AA?5?$AA?5?$AA?5?$AA?5?$AA?5?$AA?5?$AA?5@ 0000000140013ae6     .-sheduler.o
 0002:00001b3c       ??_C@_1CK@GLKKGPFH@?$AA?5?$AA?$CF?$AA7?$AAl?$AAl?$AAd?$AA?5?$AA?$CF?$AA6?$AAl?$AAl?$AAd?$AA?5?$AA?$CF?$AA5?$AAl?$AAl?$AAd?$AA?5?$AA?$HM?$AA?$AA@ 0000000140013b3c     .-sheduler.o
 0002:00001b66       ??_C@_1FE@OBAMBHOF@?$AA?5?$AA?$CF?$AA5?$AAl?$AAl?$AAd?$AA?5?$AA?$HM?$AA?5?$AA?$CF?$AA5?$AAl?$AAl?$AAd?$AA?5?$AA?$HM?$AA?5?$AA?$CF?$AA6?$AAl?$AAl?$AAd?$AA?5?$AA?$HM?$AA?5?$AA?$CF?$AA5?$AAl?$AAl?$AAd?$AA?5?$AA?$HM@ 0000000140013b66     .-sheduler.o
 0002:00001bba       ??_C@_1DM@HCILGOPA@?$AAF?$AAa?$AAi?$AAl?$AAe?$AAd?$AA?5?$AAt?$AAo?$AA?5?$AAc?$AAr?$AAe?$AAa?$AAt?$AAe?$AA?5?$AAt?$AAh?$AAr?$AAe?$AAa?$AAd?$AA?5?$AA?$CF?$AAl?$AAl?$AAd?$AA?6?$AA?$AA@ 0000000140013bba     .-sheduler.o
 0002:00001bf8       RtlNtPathSeperatorString   0000000140013bf8     ws2_32:indef.obj
 0002:00001c08       ??_C@_13FPGAJAPJ@?$AA?2@   0000000140013c08     ws2_32:indef.obj
 0002:00001c10       RtlDosPathSeperatorsString 0000000140013c10     ws2_32:indef.obj
 0002:00001c20       ??_C@_15MNCACJLI@?$AA?2?$AA?1@ 0000000140013c20     ws2_32:indef.obj
 0002:00001c28       RtlAlternateDosPathSeperatorString 0000000140013c28     ws2_32:indef.obj
 0002:00001c38       ??_C@_13CGOKJPIL@?$AA?1@   0000000140013c38     ws2_32:indef.obj
 0002:00001c50       eui48_broadcast            0000000140013c50     ws2_32:indef.obj
 0002:00001c58       scopeid_unspecified        0000000140013c58     ws2_32:indef.obj
 0002:00001c5c       in4addr_any                0000000140013c5c     ws2_32:indef.obj
 0002:00001c60       in4addr_loopback           0000000140013c60     ws2_32:indef.obj
 0002:00001c64       in4addr_broadcast          0000000140013c64     ws2_32:indef.obj
 0002:00001c68       in4addr_allnodesonlink     0000000140013c68     ws2_32:indef.obj
 0002:00001c6c       in4addr_allroutersonlink   0000000140013c6c     ws2_32:indef.obj
 0002:00001c70       in4addr_alligmpv3routersonlink 0000000140013c70     ws2_32:indef.obj
 0002:00001c74       in4addr_allteredohostsonlink 0000000140013c74     ws2_32:indef.obj
 0002:00001c78       in4addr_linklocalprefix    0000000140013c78     ws2_32:indef.obj
 0002:00001c7c       in4addr_multicastprefix    0000000140013c7c     ws2_32:indef.obj
 0002:00001c80       in6addr_any                0000000140013c80     ws2_32:indef.obj
 0002:00001c90       in6addr_loopback           0000000140013c90     ws2_32:indef.obj
 0002:00001ca0       in6addr_allnodesonnode     0000000140013ca0     ws2_32:indef.obj
 0002:00001cb0       in6addr_allnodesonlink     0000000140013cb0     ws2_32:indef.obj
 0002:00001cc0       in6addr_allroutersonlink   0000000140013cc0     ws2_32:indef.obj
 0002:00001cd0       in6addr_allmldv2routersonlink 0000000140013cd0     ws2_32:indef.obj
 0002:00001ce0       in6addr_teredoinitiallinklocaladdress 0000000140013ce0     ws2_32:indef.obj
 0002:00001cf0       in6addr_linklocalprefix    0000000140013cf0     ws2_32:indef.obj
 0002:00001d00       in6addr_multicastprefix    0000000140013d00     ws2_32:indef.obj
 0002:00001d10       in6addr_solicitednodemulticastprefix 0000000140013d10     ws2_32:indef.obj
 0002:00001d20       in6addr_v4mappedprefix     0000000140013d20     ws2_32:indef.obj
 0002:00001d30       in6addr_6to4prefix         0000000140013d30     ws2_32:indef.obj
 0002:00001d40       in6addr_teredoprefix       0000000140013d40     ws2_32:indef.obj
 0002:00001d50       in6addr_teredoprefix_old   0000000140013d50     ws2_32:indef.obj
 0002:00001d60       BUGCHECK_EFI_GUID          0000000140013d60     ws2_32:indef.obj
 0002:00002168       __imp_GdiSetBatchLimit     0000000140014168     gdi32:GDI32.dll
 0002:00002178       __imp_CommandLineToArgvW   0000000140014178     shell32:SHELL32.dll
 0002:00002188       __imp_AcquireSRWLockExclusive 0000000140014188     kernel32:KERNEL32.dll
 0002:00002190       __imp_AcquireSRWLockShared 0000000140014190     kernel32:KERNEL32.dll
 0002:00002198       __imp_CloseHandle          0000000140014198     kernel32:KERNEL32.dll
 0002:000021a0       __imp_CreateEventW         00000001400141a0     kernel32:KERNEL32.dll
 0002:000021a8       __imp_CreateFileW          00000001400141a8     kernel32:KERNEL32.dll
 0002:000021b0       __imp_CreateIoCompletionPort 00000001400141b0     kernel32:KERNEL32.dll
 0002:000021b8       __imp_CreateThread         00000001400141b8     kernel32:KERNEL32.dll
 0002:000021c0       __imp_ExitProcess          00000001400141c0     kernel32:KERNEL32.dll
 0002:000021c8       __imp_GetCommandLineW      00000001400141c8     kernel32:KERNEL32.dll
 0002:000021d0       __imp_GetConsoleMode       00000001400141d0     kernel32:KERNEL32.dll
 0002:000021d8       __imp_GetFileSizeEx        00000001400141d8     kernel32:KERNEL32.dll
 0002:000021e0       __imp_GetLastError         00000001400141e0     kernel32:KERNEL32.dll
 0002:000021e8       __imp_GetProcAddress       00000001400141e8     kernel32:KERNEL32.dll
 0002:000021f0       __imp_GetProcessHeap       00000001400141f0     kernel32:KERNEL32.dll
 0002:000021f8       __imp_GetQueuedCompletionStatus 00000001400141f8     kernel32:KERNEL32.dll
 0002:00002200       __imp_GetStdHandle         0000000140014200     kernel32:KERNEL32.dll
 0002:00002208       __imp_GetThreadContext     0000000140014208     kernel32:KERNEL32.dll
 0002:00002210       __imp_HeapAlloc            0000000140014210     kernel32:KERNEL32.dll
 0002:00002218       __imp_HeapFree             0000000140014218     kernel32:KERNEL32.dll
 0002:00002220       __imp_HeapReAlloc          0000000140014220     kernel32:KERNEL32.dll
 0002:00002228       __imp_LoadLibraryA         0000000140014228     kernel32:KERNEL32.dll
 0002:00002230       __imp_MultiByteToWideChar  0000000140014230     kernel32:KERNEL32.dll
 0002:00002238       __imp_QueryPerformanceCounter 0000000140014238     kernel32:KERNEL32.dll
 0002:00002240       __imp_QueryPerformanceFrequency 0000000140014240     kernel32:KERNEL32.dll
 0002:00002248       __imp_ReadConsoleW         0000000140014248     kernel32:KERNEL32.dll
 0002:00002250       __imp_ReadFile             0000000140014250     kernel32:KERNEL32.dll
 0002:00002258       __imp_ReleaseSRWLockExclusive 0000000140014258     kernel32:KERNEL32.dll
 0002:00002260       __imp_ReleaseSRWLockShared 0000000140014260     kernel32:KERNEL32.dll
 0002:00002268       __imp_ResumeThread         0000000140014268     kernel32:KERNEL32.dll
 0002:00002270       __imp_SetEvent             0000000140014270     kernel32:KERNEL32.dll
 0002:00002278       __imp_SetThreadContext     0000000140014278     kernel32:KERNEL32.dll
 0002:00002280       __imp_Sleep                0000000140014280     kernel32:KERNEL32.dll
 0002:00002288       __imp_SuspendThread        0000000140014288     kernel32:KERNEL32.dll
 0002:00002290       __imp_TlsAlloc             0000000140014290     kernel32:KERNEL32.dll
 0002:00002298       __imp_TlsFree              0000000140014298     kernel32:KERNEL32.dll
 0002:000022a0       __imp_TlsGetValue          00000001400142a0     kernel32:KERNEL32.dll
 0002:000022a8       __imp_TlsSetValue          00000001400142a8     kernel32:KERNEL32.dll
 0002:000022b0       __imp_TryAcquireSRWLockExclusive 00000001400142b0     kernel32:KERNEL32.dll
 0002:000022b8       __imp_VirtualAlloc         00000001400142b8     kernel32:KERNEL32.dll
 0002:000022c0       __imp_WaitForMultipleObjects 00000001400142c0     kernel32:KERNEL32.dll
 0002:000022c8       __imp_WaitForSingleObject  00000001400142c8     kernel32:KERNEL32.dll
 0002:000022d0       __imp_WriteConsoleW        00000001400142d0     kernel32:KERNEL32.dll
 0002:000022e0       __imp_BCryptGenRandom      00000001400142e0     bcrypt:bcrypt.dll
 0002:000022f0       __imp_WSAGetLastError      00000001400142f0     ws2_32:WS2_32.dll
 0002:000022f8       __imp_WSARecv              00000001400142f8     ws2_32:WS2_32.dll
 0002:00002300       __imp_WSAStartup           0000000140014300     ws2_32:WS2_32.dll
 0002:00002308       __imp_accept               0000000140014308     ws2_32:WS2_32.dll
 0002:00002310       __imp_bind                 0000000140014310     ws2_32:WS2_32.dll
 0002:00002318       __imp_closesocket          0000000140014318     ws2_32:WS2_32.dll
 0002:00002320       __imp_connect              0000000140014320     ws2_32:WS2_32.dll
 0002:00002328       __imp_freeaddrinfo         0000000140014328     ws2_32:WS2_32.dll
 0002:00002330       __imp_getaddrinfo          0000000140014330     ws2_32:WS2_32.dll
 0002:00002338       __imp_getsockname          0000000140014338     ws2_32:WS2_32.dll
 0002:00002340       __imp_htons                0000000140014340     ws2_32:WS2_32.dll
 0002:00002348       __imp_listen               0000000140014348     ws2_32:WS2_32.dll
 0002:00002350       __imp_ntohs                0000000140014350     ws2_32:WS2_32.dll
 0002:00002358       __imp_send                 0000000140014358     ws2_32:WS2_32.dll
 0002:00002360       __imp_setsockopt           0000000140014360     ws2_32:WS2_32.dll
 0002:00002368       __imp_socket               0000000140014368     ws2_32:WS2_32.dll
 0002:00002378       __imp_clBuildProgram       0000000140014378     OpenCL:OpenCL.dll
 0002:00002380       __imp_clCreateBuffer       0000000140014380     OpenCL:OpenCL.dll
 0002:00002388       __imp_clCreateCommandQueueWithProperties 0000000140014388     OpenCL:OpenCL.dll
 0002:00002390       __imp_clCreateContext      0000000140014390     OpenCL:OpenCL.dll
 0002:00002398       __imp_clCreateKernel       0000000140014398     OpenCL:OpenCL.dll
 0002:000023a0       __imp_clCreateProgramWithSource 00000001400143a0     OpenCL:OpenCL.dll
 0002:000023a8       __imp_clEnqueueNDRangeKernel 00000001400143a8     OpenCL:OpenCL.dll
 0002:000023b0       __imp_clEnqueueReadBuffer  00000001400143b0     OpenCL:OpenCL.dll
 0002:000023b8       __imp_clEnqueueWriteBuffer 00000001400143b8     OpenCL:OpenCL.dll
 0002:000023c0       __imp_clFinish             00000001400143c0     OpenCL:OpenCL.dll
 0002:000023c8       __imp_clGetDeviceIDs       00000001400143c8     OpenCL:OpenCL.dll
 0002:000023d0       __imp_clGetDeviceInfo      00000001400143d0     OpenCL:OpenCL.dll
 0002:000023d8       __imp_clGetKernelArgInfo   00000001400143d8     OpenCL:OpenCL.dll
 0002:000023e0       __imp_clGetPlatformIDs     00000001400143e0     OpenCL:OpenCL.dll
 0002:000023e8       __imp_clGetPlatformInfo    00000001400143e8     OpenCL:OpenCL.dll
 0002:000023f0       __imp_clGetProgramBuildInfo 00000001400143f0     OpenCL:OpenCL.dll
 0002:000023f8       __imp_clSetKernelArg       00000001400143f8     OpenCL:OpenCL.dll
 0003:00000000       server_port                0000000140015000     .-remote.o
 0003:00000008       thisServerId               0000000140015008     .-remote.o
 0003:00000010       NUM_THREADS                0000000140015010     .-runtime.o
 0003:00000018       CHUNK_TIME_US              0000000140015018     .-runtime.o
 0003:00000020       Providers                  0000000140015020     .-runtime.o
 0003:000000c0       AddressFamilyInformation   00000001400150c0     ws2_32:indef.obj
 0003:000000f0       connections_lock           00000001400150f0     .-api.o
 0003:000000f8       connections_len            00000001400150f8     .-api.o
 0003:00000100       pages_lock                 0000000140015100     .-api.o
 0003:00000108       pages_len                  0000000140015108     .-api.o
 0003:00000110       known_id_broadcasts        0000000140015110     .-api.o
 0003:00000130       known_page_broadcasts      0000000140015130     .-api.o
 0003:00000150       known_path_broadcasts      0000000140015150     .-api.o
 0003:00000170       known_path_id_broadcasts   0000000140015170     .-api.o
 0003:00000190       local_objects              0000000140015190     .-api.o
 0003:000001b0       known_objects              00000001400151b0     .-api.o
 0003:000001d0       query_requests             00000001400151d0     .-api.o
 0003:000001f0       push_requests              00000001400151f0     .-api.o
 0003:00000210       known_hives                0000000140015210     .-api.o
 0003:00000230       connections                0000000140015230     .-api.o
 0003:00002230       pages                      0000000140017230     .-api.o
 0003:00002e30       SL_best_platform           0000000140017e30     .-gpu_subsystem.o
 0003:00002e34       SL_best_platform_value     0000000140017e34     .-gpu_subsystem.o
 0003:00002e38       SL_platforms_len           0000000140017e38     .-gpu_subsystem.o
 0003:00002e40       SL_platforms               0000000140017e40     .-gpu_subsystem.o
 0003:00002ec0       SL_devices                 0000000140017ec0     .-gpu_subsystem.o
 0003:000032c0       SL_devices_len             00000001400182c0     .-gpu_subsystem.o
 0003:00003300       SL_main_platform           0000000140018300     .-gpu_subsystem.o
 0003:00003308       SL_context                 0000000140018308     .-gpu_subsystem.o
 0003:00003310       SL_queues                  0000000140018310     .-gpu_subsystem.o
 0003:00003710       SL_queues_len              0000000140018710     .-gpu_subsystem.o
 0003:00003750       queues                     0000000140018750     .-queue.o
 0003:00003b50       queue_size                 0000000140018b50     .-queue.o
 0003:00003b58       ServerIdGetLock            0000000140018b58     .-remote.o
 0003:00003b60       next_local_id              0000000140018b60     .-remote.o
 0003:00003b68       glbStatRemotePathMisses    0000000140018b68     .-remote.o
 0003:00003b70       glbStatRemoteOutputRequests 0000000140018b70     .-remote.o
 0003:00003b78       glbStatRemoteInputRequests 0000000140018b78     .-remote.o
 0003:00003b80       hIOCP                      0000000140018b80     .-remote.o
 0003:00003b90       hHeap                      0000000140018b90     .-runtime_lib.o
 0003:00003b98       hInput                     0000000140018b98     .-runtime_lib.o
 0003:00003ba0       buf                        0000000140018ba0     .-runtime_lib.o
 0003:00013ba0       hOutput                    0000000140028ba0     .-runtime_lib.o
 0003:00013ba8       frequency                  0000000140028ba8     .-runtime_lib.o
 0003:00013bb0       Workers                    0000000140028bb0     .-runtime.o
 0003:00014830       wait_list_lock             0000000140029830     .-runtime.o
 0003:00014838       wait_list_len              0000000140029838     .-runtime.o
 0003:00014840       dwTlsIndex                 0000000140029840     .-runtime.o
 0003:00014850       wait_list                  0000000140029850     .-runtime.o
 0003:000d7d50       defined_arrays             00000001400ecd50     .-runtime.o
 0003:000d7d58       hContinueEvent             00000001400ecd58     .-sheduler.o
 0003:000d7d60       glbMasterInfo              00000001400ecd60     .-sheduler.o
 0003:000d7d69       ExPoolZeroingNativelySupported 00000001400ecd69     ws2_32:indef.obj

 entry point at         0001:0000eae0

 Static symbols

 0001:000037b0       GetKnownHiveHash           00000001400047b0     .-api.o
 0001:00007340       p                          0000000140008340     .-queue.o
 0001:00009de0       Worker                     000000014000ade0     .-remote.o
 0001:0000a330       ConnectionListnerWorker    000000014000b330     .-remote.o
 0001:0000a530       PagesAllocator             000000014000b530     .-remote.o
 0001:0000a600       StateSender                000000014000b600     .-remote.o
 0001:0000a700       HandleApiCall              000000014000b700     .-remote.o
 0001:0000faec       .text                      0000000140010aec     asm.o
 0002:00001c40       BFE_GENERIC_MAPPING        0000000140013c40     ws2_32:indef.obj
 0002:00001d70       IPSEC_AUTH_TRANSFORM_ID_HMAC_MD5_96 0000000140013d70     ws2_32:indef.obj
 0002:00001d78       IPSEC_AUTH_TRANSFORM_ID_HMAC_SHA_1_96 0000000140013d78     ws2_32:indef.obj
 0002:00001d80       IPSEC_AUTH_TRANSFORM_ID_HMAC_SHA_256_128 0000000140013d80     ws2_32:indef.obj
 0002:00001d88       IPSEC_AUTH_TRANSFORM_ID_GCM_AES_128 0000000140013d88     ws2_32:indef.obj
 0002:00001d90       IPSEC_AUTH_TRANSFORM_ID_GCM_AES_192 0000000140013d90     ws2_32:indef.obj
 0002:00001d98       IPSEC_AUTH_TRANSFORM_ID_GCM_AES_256 0000000140013d98     ws2_32:indef.obj
 0002:00001da0       IPSEC_CIPHER_TRANSFORM_ID_CBC_DES 0000000140013da0     ws2_32:indef.obj
 0002:00001da8       IPSEC_CIPHER_TRANSFORM_ID_CBC_3DES 0000000140013da8     ws2_32:indef.obj
 0002:00001db0       IPSEC_CIPHER_TRANSFORM_ID_AES_128 0000000140013db0     ws2_32:indef.obj
 0002:00001db8       IPSEC_CIPHER_TRANSFORM_ID_AES_192 0000000140013db8     ws2_32:indef.obj
 0002:00001dc0       IPSEC_CIPHER_TRANSFORM_ID_AES_256 0000000140013dc0     ws2_32:indef.obj
 0002:00001dc8       IPSEC_CIPHER_TRANSFORM_ID_GCM_AES_128 0000000140013dc8     ws2_32:indef.obj
 0002:00001dd0       IPSEC_CIPHER_TRANSFORM_ID_GCM_AES_192 0000000140013dd0     ws2_32:indef.obj
 0002:00001dd8       IPSEC_CIPHER_TRANSFORM_ID_GCM_AES_256 0000000140013dd8     ws2_32:indef.obj
 0003:000d7d68       WFP_TRACE_NULL_DATA        00000001400ecd68     ws2_32:indef.obj
 0004:00000000       .data                      00000001400ed000     asm.o
