 a

 Timestamp is 696f78ff (Tue Jan 20 15:45:51 2026)

 Preferred load address is 0000000140000000

 Start         Length     Name                   Class
 0001:00000000 000021cdH .text                   CODE
 0002:00000000 000000a0H .rdata                  DATA
 0003:00000000 00000008H .data                   DATA
 0003:00000008 000c7d78H .bss                    DATA
 0004:00000000 00000740H .data                   DATA

  Address         Publics by Value              Rva+Base               Lib:Object

 0001:00000000       HandleNewConnection        0000000140001000     remote.o
 0001:000000c0       sendMessage                00000001400010c0     remote.o
 0001:00000260       start_remote_subsystem     0000000140001260     remote.o
 0001:00000600       memset                     0000000140001600     runtime_lib.o
 0001:000006e0       myMalloc                   00000001400016e0     runtime_lib.o
 0001:00000780       myFree                     0000000140001780     runtime_lib.o
 0001:00000790       myMemcpy                   0000000140001790     runtime_lib.o
 0001:00000900       myAtoll                    0000000140001900     runtime_lib.o
 0001:000009b0       myScanI64                  00000001400019b0     runtime_lib.o
 0001:00000a70       myScanS                    0000000140001a70     runtime_lib.o
 0001:00000b10       PrintI64                   0000000140001b10     runtime_lib.o
 0001:00000b90       PrintI64H                  0000000140001b90     runtime_lib.o
 0001:00000bd0       Print2H                    0000000140001bd0     runtime_lib.o
 0001:00000c10       myPrintf                   0000000140001c10     runtime_lib.o
 0001:00000f10       init_lib                   0000000140001f10     runtime_lib.o
 0001:00000fa0       NewObject                  0000000140001fa0     runtime.o
 0001:00001100       PushObject                 0000000140002100     runtime.o
 0001:00001110       QueryObject                0000000140002110     runtime.o
 0001:000011b0       WaitListWorker             00000001400021b0     runtime.o
 0001:000011d0       PrintObject                00000001400021d0     runtime.o
 0001:000011e0       EnqueueWorker              00000001400021e0     runtime.o
 0001:00001200       SheduleWorker              0000000140002200     runtime.o
 0001:00001540       StartNewWorker             0000000140002540     runtime.o
 0001:000015a0       CallObject                 00000001400025a0     runtime.o
 0001:00001630       LoadWorker                 0000000140002630     runtime.o
 0001:00001d20       entry                      0000000140002d20     runtime.o
 0001:00001f20       fastPushObject             0000000140002f20     asm.o
 0001:00001f66       fastQueryObject            0000000140002f66     asm.o
 0001:0000203a       fastNewObject              000000014000303a     asm.o
 0001:0000206d       fastCallObject             000000014000306d     asm.o
 0001:000020a0       ExecuteWorker              00000001400030a0     asm.o
 0001:000020e7       setjmpUN                   00000001400030e7     asm.o
 0001:0000211a       longjmpUN                  000000014000311a     asm.o
 0001:00002143       DllCall                    0000000140003143     asm.o
 0002:00000088       __real@00000008            0000000140004088     runtime.o
 0002:00000090       in6addr_any                0000000140004090     ws2_32:indef.obj
 0002:000000a0       ??_C@_1CC@DEIAIPBB@?$AA?4?$AA?4?$AA?1?$AA?4?$AA?4?$AA?1?$AA?4?$AA?4?$AA?1?$AAr?$AAe?$AAs?$AA?4?$AAb?$AAi?$AAn?$AA?$AA@ 00000001400040a0     runtime.o
 0002:000000c2       ??_C@_1CC@HHHBAEGI@?$AAM?$AAe?$AAs?$AAs?$AAe?$AAn?$AAg?$AAe?$AAr?$AA?5?$AAr?$AAe?$AAa?$AAd?$AAy?$AA?6?$AA?$AA@ 00000001400040c2     remote.o
 0002:000000e4       ??_C@_1BA@EBHAFHDE@?$AA2?$AA?$DO?$AA?$CF?$AAl?$AAl?$AAx?$AA?6?$AA?$AA@ 00000001400040e4     runtime.o
 0002:000000f4       ??_C@_1BA@GILIODMG@?$AA1?$AA?$DO?$AA?$CF?$AAl?$AAl?$AAx?$AA?6?$AA?$AA@ 00000001400040f4     runtime.o
 0002:00000104       ??_C@_1BA@MGNAHCFH@?$AA0?$AA?$DO?$AA?$CF?$AAl?$AAl?$AAx?$AA?6?$AA?$AA@ 0000000140004104     runtime.o
 0002:00000114       ??_C@_1EA@KBEMDBEM@?$AAE?$AAr?$AAr?$AAo?$AAr?$AA?3?$AA?5?$AAC?$AAo?$AAu?$AAl?$AAd?$AA?5?$AAn?$AAo?$AAt?$AA?5?$AAc?$AAo?$AAn?$AAn?$AAe?$AAc?$AAt?$AA?5?$AAt?$AAo?$AA?5?$AA?$CF?$AAs?$AA?6?$AA?$AA@ 0000000140004114     remote.o
 0002:00000154       ??_C@_1FE@JKPBPNOM@?$AAE?$AAr?$AAr?$AAo?$AAr?$AA?5?$AAr?$AAe?$AAs?$AAo?$AAl?$AAv?$AAi?$AAn?$AAg?$AA?5?$AAh?$AAo?$AAs?$AAt?$AA?4?$AA?5?$AA?$FL?$AAs?$AAt?$AAa?$AAt?$AAu?$AAs?$AA?$DN?$AA?$CF?$AAl@ 0000000140004154     remote.o
 0002:000001a8       ??_C@_1CC@PKHECOAP@?$AAG?$AAo?$AAt?$AA?5?$AAm?$AAe?$AAs?$AAs?$AAa?$AAg?$AAe?$AA?3?$AA?5?$AA?$CF?$AAs?$AA?6?$AA?$AA@ 00000001400041a8     remote.o
 0002:000001ca       ??_C@_1FC@OGJDIOEJ@?$AAE?$AAr?$AAr?$AAo?$AAr?$AA?3?$AA?5?$AAc?$AAa?$AAn?$AA?8?$AAt?$AA?5?$AAo?$AAp?$AAe?$AAn?$AA?5?$AA?4?$AA?4?$AA?1?$AA?4?$AA?4?$AA?1?$AA?4?$AA?4?$AA?1?$AAr?$AAe?$AAs?$AA?4?$AAb@ 00000001400041ca     runtime.o
 0002:0000021c       ??_C@_1CE@IOICPHGF@?$AAE?$AAn?$AAt?$AAe?$AAr?$AA?5?$AAI?$AAP?$AA?3?$AAM?$AAe?$AAs?$AAs?$AAa?$AAg?$AAe?$AA?6?$AA?$AA@ 000000014000421c     remote.o
 0002:00000240       ??_C@_1DK@EHAPFJND@?$AAs?$AAe?$AAr?$AAv?$AAe?$AAr?$AA?5?$AAs?$AAt?$AAa?$AAr?$AAt?$AAe?$AAd?$AA?5?$AAo?$AAn?$AA?5?$AAp?$AAo?$AAr?$AAt?$AA?5?$AA?$CF?$AAl?$AAl?$AAd?$AA?6?$AA?$AA@ 0000000140004240     remote.o
 0002:0000027a       ??_C@_1BI@DOGCPILG@?$AAE?$AAR?$AAR?$AAO?$AAR?$AA?5?$AA?$CF?$AAl?$AAl?$AAd?$AA?6?$AA?$AA@ 000000014000427a     runtime_lib.o
 0002:00000292       ??_C@_1HI@GNCDLKLI@?$AAE?$AAr?$AAr?$AAo?$AAr?$AA?3?$AA?5?$AAr?$AAu?$AAn?$AAt?$AAi?$AAm?$AAe?$AA?5?$AAd?$AAo?$AAe?$AAs?$AAn?$AA?8?$AAt?$AA?5?$AAs?$AAu?$AAp?$AAp?$AAo?$AAr?$AAt?$AA?5?$AAs@ 0000000140004292     runtime.o
 0002:0000030a       ??_C@_1DK@JDJLBDGO@?$AAM?$AAe?$AAs?$AAs?$AAa?$AAg?$AAe?$AA?5?$AAt?$AAo?$AA?5?$AA?$FL?$AA?$CF?$AAs?$AA?$FN?$AA?5?$AA?$FL?$AA?$CF?$AAs?$AA?$FN?$AA?5?$AA?$DO?$AA?5?$AA?$FL?$AA?$CF?$AAs?$AA?$FN?$AA?6?$AA?$AA@ 000000014000430a     remote.o
 0002:00000344       ??_C@_1FG@DPFHIKFA@?$AA?$CB?$AA?$CB?$AA?$CB?$AAA?$AAL?$AAL?$AA?5?$AAE?$AAX?$AAI?$AAS?$AAT?$AAI?$AAN?$AAG?$AA?5?$AAW?$AAO?$AAR?$AAK?$AAE?$AAR?$AAS?$AA?5?$AAA?$AAR?$AAE?$AA?5?$AAD?$AAE?$AAA?$AAD@ 0000000140004344     runtime.o
 0002:00000540       __imp_WSARecv              0000000140004540     ws2_32:WS2_32.dll
 0002:00000548       __imp_WSAStartup           0000000140004548     ws2_32:WS2_32.dll
 0002:00000550       __imp_accept               0000000140004550     ws2_32:WS2_32.dll
 0002:00000558       __imp_bind                 0000000140004558     ws2_32:WS2_32.dll
 0002:00000560       __imp_closesocket          0000000140004560     ws2_32:WS2_32.dll
 0002:00000568       __imp_connect              0000000140004568     ws2_32:WS2_32.dll
 0002:00000570       __imp_freeaddrinfo         0000000140004570     ws2_32:WS2_32.dll
 0002:00000578       __imp_getaddrinfo          0000000140004578     ws2_32:WS2_32.dll
 0002:00000580       __imp_getsockname          0000000140004580     ws2_32:WS2_32.dll
 0002:00000588       __imp_htons                0000000140004588     ws2_32:WS2_32.dll
 0002:00000590       __imp_listen               0000000140004590     ws2_32:WS2_32.dll
 0002:00000598       __imp_ntohs                0000000140004598     ws2_32:WS2_32.dll
 0002:000005a0       __imp_send                 00000001400045a0     ws2_32:WS2_32.dll
 0002:000005a8       __imp_setsockopt           00000001400045a8     ws2_32:WS2_32.dll
 0002:000005b0       __imp_socket               00000001400045b0     ws2_32:WS2_32.dll
 0002:000005c0       __imp_CloseHandle          00000001400045c0     kernel32:KERNEL32.dll
 0002:000005c8       __imp_CreateFileW          00000001400045c8     kernel32:KERNEL32.dll
 0002:000005d0       __imp_CreateIoCompletionPort 00000001400045d0     kernel32:KERNEL32.dll
 0002:000005d8       __imp_CreateThread         00000001400045d8     kernel32:KERNEL32.dll
 0002:000005e0       __imp_ExitProcess          00000001400045e0     kernel32:KERNEL32.dll
 0002:000005e8       __imp_FormatMessageW       00000001400045e8     kernel32:KERNEL32.dll
 0002:000005f0       __imp_FreeLibrary          00000001400045f0     kernel32:KERNEL32.dll
 0002:000005f8       __imp_GetFileSizeEx        00000001400045f8     kernel32:KERNEL32.dll
 0002:00000600       __imp_GetLastError         0000000140004600     kernel32:KERNEL32.dll
 0002:00000608       __imp_GetProcAddress       0000000140004608     kernel32:KERNEL32.dll
 0002:00000610       __imp_GetQueuedCompletionStatus 0000000140004610     kernel32:KERNEL32.dll
 0002:00000618       __imp_GetStdHandle         0000000140004618     kernel32:KERNEL32.dll
 0002:00000620       __imp_LoadLibraryA         0000000140004620     kernel32:KERNEL32.dll
 0002:00000628       __imp_MultiByteToWideChar  0000000140004628     kernel32:KERNEL32.dll
 0002:00000630       __imp_ReadConsoleW         0000000140004630     kernel32:KERNEL32.dll
 0002:00000638       __imp_ReadFile             0000000140004638     kernel32:KERNEL32.dll
 0002:00000640       __imp_VirtualAlloc         0000000140004640     kernel32:KERNEL32.dll
 0002:00000648       __imp_WriteConsoleW        0000000140004648     kernel32:KERNEL32.dll
 0002:00000658       __imp_mciSendStringW       0000000140004658     winmm:WINMM.dll
 0002:00000668       __imp_CreateFontW          0000000140004668     gdi32:GDI32.dll
 0002:00000670       __imp_SelectObject         0000000140004670     gdi32:GDI32.dll
 0003:00000000       runningId                  0000000140005000     runtime.o
 0003:00000010       next_local_id              0000000140005010     remote.o
 0003:00000020       connections                0000000140005020     remote.o
 0003:00002020       hIOCP                      0000000140007020     remote.o
 0003:00002840       data_buffer_end            0000000140007840     runtime_lib.o
 0003:00002848       data_buffer                0000000140007848     runtime_lib.o
 0003:00002850       commited                   0000000140007850     runtime_lib.o
 0003:00002858       hInput                     0000000140007858     runtime_lib.o
 0003:00002860       buf                        0000000140007860     runtime_lib.o
 0003:00003860       hOutput                    0000000140008860     runtime_lib.o
 0003:00003870       Workers                    0000000140008870     runtime.o
 0003:000041d0       object_array               00000001400091d0     runtime.o
 0003:000c76d0       object_array_len           00000001400cc6d0     runtime.o
 0003:000c76d8       defined_arrays             00000001400cc6d8     runtime.o
 0003:000c76e0       ShedulerBuffer             00000001400cc6e0     runtime.o
 0003:000c7730       wait_list_len              00000001400cc730     runtime.o
 0003:000c7738       queue_len                  00000001400cc738     runtime.o
 0003:000c7740       wait_list                  00000001400cc740     runtime.o
 0003:000c7a60       queue                      00000001400cca60     runtime.o
 0004:00000400       context                    00000001400cd400     asm.o

 entry point at         0001:00001d20

 Static symbols

 0001:00000350       Worker                     0000000140001350     remote.o
 0001:00000460       ConnectionListnerWorker    0000000140001460     remote.o
 0001:00001f20       .text                      0000000140002f20     asm.o
 0001:00001f40       .text                      0000000140002f40     asm.o
 0001:00001f90       .text                      0000000140002f90     asm.o
 0003:00002030       gai_strerrorW.buff         0000000140007030     remote.o
 0004:00000000       .data                      00000001400cd000     asm.o
 0004:000006c0       .data                      00000001400cd6c0     asm.o
 0004:00000700       .data                      00000001400cd700     asm.o
