 a

 Timestamp is 6975880a (Sun Jan 25 06:03:38 2026)

 Preferred load address is 0000000140000000

 Start         Length     Name                   Class
 0001:00000000 000049c2H .text                   CODE
 0002:00000000 00000128H .rdata                  DATA
 0003:00000000 00000010H .data                   DATA
 0003:00000010 00004d08H .bss                    DATA
 0004:00000000 000006a2H .data                   DATA

  Address         Publics by Value              Rva+Base               Lib:Object

 0001:00000000       equal_bytes                0000000140001000     api.o
 0001:00000030       GetHashtableNoLock         0000000140001030     api.o
 0001:00000140       SetHashtableNoLock         0000000140001140     api.o
 0001:00000530       GetHashtable               0000000140001530     api.o
 0001:00000670       SetHashtable               0000000140001670     api.o
 0001:000006b0       InitInternalStructures     00000001400016b0     api.o
 0001:000007f0       PauseWorker                00000001400017f0     await_worker.o
 0001:00000850       RegisterObjectWithId       0000000140001850     new_object.o
 0001:00000880       NewObject                  0000000140001880     new_object.o
 0001:00000af0       UpdateLocalPush            0000000140001af0     push_object.o
 0001:00000b40       PushObject                 0000000140001b40     push_object.o
 0001:00000c00       QueryLocalObject           0000000140001c00     query_object.o
 0001:00000c50       QueryObject                0000000140001c50     query_object.o
 0001:00000d50       GetConnectionById          0000000140001d50     remote.o
 0001:00000da0       ConfirmPage                0000000140001da0     remote.o
 0001:00000e00       HandleNewConnection        0000000140001e00     remote.o
 0001:00000f60       SendPageAllocationConfirm  0000000140001f60     remote.o
 0001:00000fc0       RedirectBroadcastQuery     0000000140001fc0     remote.o
 0001:000010b0       ConfirmConnection          00000001400020b0     remote.o
 0001:00001180       InitiateConnection         0000000140002180     remote.o
 0001:00001350       RequestMemoryPage          0000000140002350     remote.o
 0001:00001440       AnswerQueryObject          0000000140002440     remote.o
 0001:00001510       AnswerRequestObjectPath    0000000140002510     remote.o
 0001:000015f0       RequestObjectPathBroadcast 00000001400025f0     remote.o
 0001:00001750       RequestObjectGet           0000000140002750     remote.o
 0001:00001850       RegisterPushEvent          0000000140002850     remote.o
 0001:00001870       start_remote_subsystem     0000000140002870     remote.o
 0001:00002cd0       memset                     0000000140003cd0     runtime_lib.o
 0001:00002db0       myMalloc                   0000000140003db0     runtime_lib.o
 0001:00002e50       myFree                     0000000140003e50     runtime_lib.o
 0001:00002e60       memcpy                     0000000140003e60     runtime_lib.o
 0001:00002f80       myAtoll                    0000000140003f80     runtime_lib.o
 0001:00003030       get_char                   0000000140004030     runtime_lib.o
 0001:000030f0       myScanI64                  00000001400040f0     runtime_lib.o
 0001:00003150       myScanS                    0000000140004150     runtime_lib.o
 0001:000031c0       PrintI64                   00000001400041c0     runtime_lib.o
 0001:00003240       PrintI64H                  0000000140004240     runtime_lib.o
 0001:00003280       Print2H                    0000000140004280     runtime_lib.o
 0001:000032c0       myPrintf                   00000001400042c0     runtime_lib.o
 0001:000035c0       assertion_failure          00000001400045c0     runtime_lib.o
 0001:00003600       myAbs                      0000000140004600     runtime_lib.o
 0001:00003610       SheduleTimeoutFromNow      0000000140004610     runtime_lib.o
 0001:00003660       init_lib                   0000000140004660     runtime_lib.o
 0001:000036f0       PrintObject                00000001400046f0     runtime.o
 0001:00003700       WaitListWorker             0000000140004700     runtime.o
 0001:00003720       EnqueueWorkerFromWaitList  0000000140004720     runtime.o
 0001:00003780       EnqueueWorker              0000000140004780     runtime.o
 0001:000037a0       UpdateWaitingWorkers       00000001400047a0     runtime.o
 0001:00003980       SheduleWorker              0000000140004980     runtime.o
 0001:00003ba0       StartNewWorker             0000000140004ba0     runtime.o
 0001:00003c00       CallObject                 0000000140004c00     runtime.o
 0001:00003c90       LoadWorker                 0000000140004c90     runtime.o
 0001:00004380       entry                      0000000140005380     runtime.o
 0001:000046e4       fastPushObject             00000001400056e4     asm.o
 0001:00004765       fastQueryObject            0000000140005765     asm.o
 0001:000047e9       fastNewObject              00000001400057e9     asm.o
 0001:00004862       fastCallObject             0000000140005862     asm.o
 0001:00004895       ExecuteWorker              0000000140005895     asm.o
 0001:000048dc       setjmpUN                   00000001400058dc     asm.o
 0001:0000490f       longjmpUN                  000000014000590f     asm.o
 0001:00004938       DllCall                    0000000140005938     asm.o
 0001:000049d0       BCryptGenRandom            00000001400059d0     bcrypt:bcrypt.dll
 0002:00000110       __real@00000008            0000000140006110     runtime.o
 0002:00000118       in6addr_any                0000000140006118     ws2_32:indef.obj
 0002:00000128       ??_C@_1CC@DEIAIPBB@?$AA?4?$AA?4?$AA?1?$AA?4?$AA?4?$AA?1?$AA?4?$AA?4?$AA?1?$AAr?$AAe?$AAs?$AA?4?$AAb?$AAi?$AAn?$AA?$AA@ 0000000140006128     runtime.o
 0002:0000014a       ??_C@_1EK@MEEMPPBB@?$AAN?$AAO?$AAT?$AA?5?$AAI?$AAM?$AAP?$AAL?$AAE?$AAM?$AAE?$AAN?$AAT?$AAE?$AAD?$AA?5?$AAp?$AAu?$AAs?$AAh?$AA?5?$AAr?$AAe?$AAg?$AAi?$AAs?$AAt?$AAe?$AAr?$AA?5?$AAe?$AAv@ 000000014000614a     remote.o
 0002:00000194       ??_C@_1FA@NCKGGOFM@?$AAN?$AAO?$AAT?$AA?5?$AAI?$AAM?$AAP?$AAL?$AAE?$AAM?$AAE?$AAN?$AAT?$AAE?$AAD?$AA?3?$AA?5?$AAp?$AAu?$AAs?$AAh?$AA?5?$AAt?$AAo?$AA?5?$AAr?$AAe?$AAm?$AAo?$AAt?$AAe?$AA?5@ 0000000140006194     push_object.o
 0002:000001e4       ??_C@_1EA@KBEMDBEM@?$AAE?$AAr?$AAr?$AAo?$AAr?$AA?3?$AA?5?$AAC?$AAo?$AAu?$AAl?$AAd?$AA?5?$AAn?$AAo?$AAt?$AA?5?$AAc?$AAo?$AAn?$AAn?$AAe?$AAc?$AAt?$AA?5?$AAt?$AAo?$AA?5?$AA?$CF?$AAs?$AA?6?$AA?$AA@ 00000001400061e4     remote.o
 0002:00000224       ??_C@_1EI@GJCCEHA@?$AAF?$AAi?$AAl?$AAe?$AA?3?$AA?5?$AA?$CF?$AAs?$AA?0?$AA?5?$AAL?$AAi?$AAn?$AAe?$AA?3?$AA?5?$AA?$CF?$AAl?$AAl?$AAd?$AA?0?$AA?5?$AAF?$AAu?$AAn?$AAc?$AAt?$AAi?$AAo?$AAn?$AA?3?$AA?5@ 0000000140006224     runtime_lib.o
 0002:0000026c       ??_C@_1CM@EJGKJCED@?$AAA?$AAs?$AAs?$AAe?$AAr?$AAt?$AAi?$AAo?$AAn?$AA?5?$AAf?$AAa?$AAi?$AAl?$AAe?$AAd?$AA?3?$AA?5?$AA?$CF?$AAs?$AA?6?$AA?$AA@ 000000014000626c     runtime_lib.o
 0002:00000298       ??_C@_1EI@OLFKDNEP@?$AAE?$AAr?$AAr?$AAo?$AAr?$AA?3?$AA?5?$AAa?$AAl?$AAl?$AAo?$AAc?$AAa?$AAt?$AAe?$AAd?$AA?5?$AAa?$AAr?$AAr?$AAa?$AAy?$AA?5?$AAi?$AAs?$AAn?$AA?8?$AAt?$AA?5?$AAl?$AAo?$AAc@ 0000000140006298     runtime.o
 0002:000002e0       ??_C@_1BC@LAJDDKNP@?$AAw?$AAa?$AAi?$AAt?$AAi?$AAn?$AAg?$AA?6?$AA?$AA@ 00000001400062e0     runtime.o
 0002:000002f2       ??_C@_1EK@FDFELEEK@?$AAR?$AAe?$AAs?$AAu?$AAl?$AAt?$AA?5?$AAp?$AAr?$AAo?$AAm?$AAi?$AAs?$AAe?$AA?5?$AAn?$AAo?$AAt?$AA?5?$AAf?$AAo?$AAu?$AAn?$AAd?$AA?5?$AAo?$AAn?$AA?5?$AAm?$AAa?$AAc?$AAh@ 00000001400062f2     runtime.o
 0002:0000033c       ??_C@_1FC@OGJDIOEJ@?$AAE?$AAr?$AAr?$AAo?$AAr?$AA?3?$AA?5?$AAc?$AAa?$AAn?$AA?8?$AAt?$AA?5?$AAo?$AAp?$AAe?$AAn?$AA?5?$AA?4?$AA?4?$AA?1?$AA?4?$AA?4?$AA?1?$AA?4?$AA?4?$AA?1?$AAr?$AAe?$AAs?$AA?4?$AAb@ 000000014000633c     runtime.o
 0002:0000038e       ??_C@_1CK@IMAGNILG@?$AAC?$AAo?$AAn?$AAf?$AAi?$AAr?$AAm?$AAe?$AAd?$AA?5?$AAp?$AAo?$AAr?$AAt?$AA?$DN?$AA?$CF?$AAl?$AAl?$AAd?$AA?6?$AA?$AA@ 000000014000638e     remote.o
 0002:000003b8       ??_C@_1EO@CDOEBIIP@?$AAS?$AAe?$AAn?$AAd?$AAi?$AAn?$AAg?$AA?5?$AAb?$AAr?$AAo?$AAa?$AAd?$AAc?$AAa?$AAs?$AAt?$AA?5?$AAt?$AAo?$AA?5?$AAf?$AAi?$AAn?$AAd?$AA?5?$AAo?$AAb?$AAj?$AAe?$AAc?$AAt@ 00000001400063b8     remote.o
 0002:00000406       ??_C@_1LA@ICLCBFDH@?$AAE?$AAr?$AAr?$AAo?$AAr?$AA?3?$AA?5?$AAA?$AAP?$AAI?$AA_?$AAA?$AAN?$AAS?$AAW?$AAE?$AAR?$AA_?$AAR?$AAE?$AAQ?$AAU?$AAE?$AAS?$AAT?$AA_?$AAC?$AAO?$AAN?$AAN?$AAE?$AAC@ 0000000140006406     remote.o
 0002:000004b6       ??_C@_1BG@NFJFAKFE@?$AA?$CF?$AAl?$AAl?$AAd?$AA?1?$AA?$CF?$AAl?$AAl?$AAd?$AA?6?$AA?$AA@ 00000001400064b6     runtime.o
 0002:000004cc       ??_C@_1DK@EHAPFJND@?$AAs?$AAe?$AAr?$AAv?$AAe?$AAr?$AA?5?$AAs?$AAt?$AAa?$AAr?$AAt?$AAe?$AAd?$AA?5?$AAo?$AAn?$AA?5?$AAp?$AAo?$AAr?$AAt?$AA?5?$AA?$CF?$AAl?$AAl?$AAd?$AA?6?$AA?$AA@ 00000001400064cc     remote.o
 0002:00000506       ??_C@_1CG@GBGLFGEJ@?$AAw?$AAa?$AAi?$AAt?$AAi?$AAn?$AAg?$AA?5?$AAt?$AAy?$AAp?$AAe?$AA?5?$AA?$CF?$AAl?$AAl?$AAd?$AA?6?$AA?$AA@ 0000000140006506     runtime.o
 0002:0000052c       ??_C@_1DG@GLOHHOJG@?$AAT?$AAe?$AAm?$AAp?$AAo?$AAr?$AAa?$AAr?$AAy?$AA?5?$AAl?$AAo?$AAc?$AAa?$AAl?$AA_?$AAi?$AAd?$AA?5?$AA?$DN?$AA?5?$AA?$CF?$AAl?$AAl?$AAd?$AA?6?$AA?$AA@ 000000014000652c     remote.o
 0002:00000562       ??_C@_1CC@OGJGNONI@?$AAw?$AAa?$AAi?$AAt?$AA?5?$AAl?$AAi?$AAs?$AAt?$AA?3?$AA?5?$AA?$CF?$AAl?$AAl?$AAd?$AA?6?$AA?$AA@ 0000000140006562     runtime.o
 0002:00000584       ??_C@_1EG@JHJBOEP@?$AAG?$AAe?$AAt?$AA?5?$AAa?$AAp?$AAi?$AA?5?$AAc?$AAa?$AAl?$AAl?$AA?5?$AA?$CF?$AAl?$AAl?$AAd?$AA?5?$AAo?$AAf?$AA?5?$AAl?$AAe?$AAn?$AAg?$AAt?$AAh?$AA?3?$AA?5?$AA?$CF?$AAl?$AAl@ 0000000140006584     remote.o
 0002:000005ca       ??_C@_1HI@GNCDLKLI@?$AAE?$AAr?$AAr?$AAo?$AAr?$AA?3?$AA?5?$AAr?$AAu?$AAn?$AAt?$AAi?$AAm?$AAe?$AA?5?$AAd?$AAo?$AAe?$AAs?$AAn?$AA?8?$AAt?$AA?5?$AAs?$AAu?$AAp?$AAp?$AAo?$AAr?$AAt?$AA?5?$AAs@ 00000001400065ca     runtime.o
 0002:00000642       ??_C@_1DC@MOJEJJIM@?$AAC?$AAo?$AAn?$AAf?$AAi?$AAg?$AAu?$AAr?$AAa?$AAt?$AAi?$AAo?$AAn?$AA?5?$AAc?$AAo?$AAn?$AAf?$AAi?$AAr?$AAm?$AAe?$AAd?$AA?6?$AA?$AA@ 0000000140006642     remote.o
 0002:00000674       ??_C@_1CE@FBEJGOMB@?$AAP?$AAr?$AAo?$AAg?$AAr?$AAa?$AAm?$AA?5?$AAf?$AAi?$AAn?$AAi?$AAs?$AAh?$AAe?$AAd?$AA?6?$AA?$AA@ 0000000140006674     runtime.o
 0002:00000698       ??_C@_1CE@BDEHPDNE@?$AAG?$AAe?$AAt?$AA?5?$AAc?$AAo?$AAm?$AAm?$AAa?$AAn?$AAd?$AA?5?$AA?$FL?$AA?$CF?$AAs?$AA?$FN?$AA?6?$AA?$AA@ 0000000140006698     remote.o
 0002:000006bc       ??_C@_1GM@MICHOCHB@?$AAA?$AAn?$AAs?$AAw?$AAe?$AAr?$AA?5?$AAQ?$AAu?$AAe?$AAr?$AAy?$AA?5?$AAO?$AAb?$AAj?$AAe?$AAc?$AAt?$AA?5?$AAt?$AAo?$AA?5?$AAl?$AAo?$AAc?$AAa?$AAl?$AAi?$AAd?$AA?$DN?$AA?$CF@ 00000001400066bc     remote.o
 0002:00000728       ??_C@_1JC@NNCBABAM@?$AAA?$AAS?$AAS?$AAE?$AAR?$AAT?$AA?5?$AAE?$AAR?$AAR?$AAO?$AAR?$AA?3?$AA?5?$AAb?$AAr?$AAo?$AAa?$AAd?$AAc?$AAa?$AAs?$AAt?$AA?9?$AA?$DO?$AAl?$AAo?$AAc?$AAa?$AAl?$AA_?$AAr@ 0000000140006728     remote.o
 0002:000007ba       ??_C@_1FA@BNLCLDHI@?$AAU?$AAN?$AAS?$AAU?$AAP?$AAP?$AAO?$AAR?$AAT?$AAE?$AAD?$AA?5?$AAC?$AAO?$AAN?$AAT?$AAI?$AAN?$AAU?$AAE?$AA?5?$AAF?$AAR?$AAO?$AAM?$AA?5?$AAW?$AAA?$AAI?$AAT?$AAI?$AAN@ 00000001400067ba     remote.o
 0002:0000080a       ??_C@_1CC@CNFLNLEB@?$AAN?$AAO?$AAT?$AA?5?$AAI?$AAM?$AAP?$AAL?$AAE?$AAM?$AAE?$AAN?$AAT?$AAE?$AAD?$AA?6?$AA?$AA@ 000000014000680a     runtime.o
 0002:0000082c       ??_C@_1DG@NNMMEGKD@?$AAS?$AAe?$AAl?$AAe?$AAc?$AAt?$AAe?$AAd?$AA?5?$AAc?$AAo?$AAn?$AAn?$AAe?$AAc?$AAt?$AA?5?$AAc?$AAo?$AAm?$AAm?$AAa?$AAn?$AAd?$AA?4?$AA?6?$AA?$AA@ 000000014000682c     remote.o
 0002:00000862       ??_C@_1CI@KPENLAE@?$AAE?$AAn?$AAt?$AAe?$AAr?$AA?5?$AAI?$AAP?$AA?5?$AAa?$AAn?$AAd?$AA?5?$AAP?$AAO?$AAR?$AAT?$AA?4?$AA?6?$AA?$AA@ 0000000140006862     remote.o
 0002:0000088a       ??_C@_1EG@CAHECGOL@?$AAT?$AAr?$AAy?$AAi?$AAn?$AAg?$AA?5?$AAt?$AAo?$AA?5?$AAc?$AAo?$AAn?$AAn?$AAe?$AAc?$AAt?$AA?5?$AAt?$AAo?$AA?5?$AA?$FL?$AA?$CF?$AAs?$AA?$FN?$AA?5?$AA?$FL?$AA?$CF?$AAs?$AA?$FN?$AA?4?$AA?4@ 000000014000688a     remote.o
 0002:000008d0       ??_C@_1FG@DPFHIKFA@?$AA?$CB?$AA?$CB?$AA?$CB?$AAA?$AAL?$AAL?$AA?5?$AAE?$AAX?$AAI?$AAS?$AAT?$AAI?$AAN?$AAG?$AA?5?$AAW?$AAO?$AAR?$AAK?$AAE?$AAR?$AAS?$AA?5?$AAA?$AAR?$AAE?$AA?5?$AAD?$AAE?$AAA?$AAD@ 00000001400068d0     runtime.o
 0002:00000ac8       __imp_AcquireSRWLockExclusive 0000000140006ac8     kernel32:KERNEL32.dll
 0002:00000ad0       __imp_AcquireSRWLockShared 0000000140006ad0     kernel32:KERNEL32.dll
 0002:00000ad8       __imp_CloseHandle          0000000140006ad8     kernel32:KERNEL32.dll
 0002:00000ae0       __imp_CreateFileW          0000000140006ae0     kernel32:KERNEL32.dll
 0002:00000ae8       __imp_CreateIoCompletionPort 0000000140006ae8     kernel32:KERNEL32.dll
 0002:00000af0       __imp_CreateThread         0000000140006af0     kernel32:KERNEL32.dll
 0002:00000af8       __imp_ExitProcess          0000000140006af8     kernel32:KERNEL32.dll
 0002:00000b00       __imp_GetConsoleMode       0000000140006b00     kernel32:KERNEL32.dll
 0002:00000b08       __imp_GetFileSizeEx        0000000140006b08     kernel32:KERNEL32.dll
 0002:00000b10       __imp_GetProcAddress       0000000140006b10     kernel32:KERNEL32.dll
 0002:00000b18       __imp_GetQueuedCompletionStatus 0000000140006b18     kernel32:KERNEL32.dll
 0002:00000b20       __imp_GetStdHandle         0000000140006b20     kernel32:KERNEL32.dll
 0002:00000b28       __imp_LoadLibraryA         0000000140006b28     kernel32:KERNEL32.dll
 0002:00000b30       __imp_MultiByteToWideChar  0000000140006b30     kernel32:KERNEL32.dll
 0002:00000b38       __imp_QueryPerformanceCounter 0000000140006b38     kernel32:KERNEL32.dll
 0002:00000b40       __imp_QueryPerformanceFrequency 0000000140006b40     kernel32:KERNEL32.dll
 0002:00000b48       __imp_ReadConsoleW         0000000140006b48     kernel32:KERNEL32.dll
 0002:00000b50       __imp_ReadFile             0000000140006b50     kernel32:KERNEL32.dll
 0002:00000b58       __imp_ReleaseSRWLockExclusive 0000000140006b58     kernel32:KERNEL32.dll
 0002:00000b60       __imp_ReleaseSRWLockShared 0000000140006b60     kernel32:KERNEL32.dll
 0002:00000b68       __imp_Sleep                0000000140006b68     kernel32:KERNEL32.dll
 0002:00000b70       __imp_VirtualAlloc         0000000140006b70     kernel32:KERNEL32.dll
 0002:00000b78       __imp_WriteConsoleW        0000000140006b78     kernel32:KERNEL32.dll
 0002:00000b88       __imp_BCryptGenRandom      0000000140006b88     bcrypt:bcrypt.dll
 0002:00000b98       __imp_WSARecv              0000000140006b98     ws2_32:WS2_32.dll
 0002:00000ba0       __imp_WSAStartup           0000000140006ba0     ws2_32:WS2_32.dll
 0002:00000ba8       __imp_accept               0000000140006ba8     ws2_32:WS2_32.dll
 0002:00000bb0       __imp_bind                 0000000140006bb0     ws2_32:WS2_32.dll
 0002:00000bb8       __imp_closesocket          0000000140006bb8     ws2_32:WS2_32.dll
 0002:00000bc0       __imp_connect              0000000140006bc0     ws2_32:WS2_32.dll
 0002:00000bc8       __imp_freeaddrinfo         0000000140006bc8     ws2_32:WS2_32.dll
 0002:00000bd0       __imp_getaddrinfo          0000000140006bd0     ws2_32:WS2_32.dll
 0002:00000bd8       __imp_getsockname          0000000140006bd8     ws2_32:WS2_32.dll
 0002:00000be0       __imp_htons                0000000140006be0     ws2_32:WS2_32.dll
 0002:00000be8       __imp_listen               0000000140006be8     ws2_32:WS2_32.dll
 0002:00000bf0       __imp_ntohs                0000000140006bf0     ws2_32:WS2_32.dll
 0002:00000bf8       __imp_send                 0000000140006bf8     ws2_32:WS2_32.dll
 0002:00000c00       __imp_setsockopt           0000000140006c00     ws2_32:WS2_32.dll
 0002:00000c08       __imp_socket               0000000140006c08     ws2_32:WS2_32.dll
 0003:00000000       server_port                0000000140007000     remote.o
 0003:00000008       runningId                  0000000140007008     runtime.o
 0003:00000010       connections_lock           0000000140007010     api.o
 0003:00000018       connections_len            0000000140007018     api.o
 0003:00000020       pages_lock                 0000000140007020     api.o
 0003:00000028       pages_len                  0000000140007028     api.o
 0003:00000030       known_broadcasts           0000000140007030     api.o
 0003:00000050       known_hives                0000000140007050     api.o
 0003:00000070       local_objects              0000000140007070     api.o
 0003:00000090       known_objects              0000000140007090     api.o
 0003:000000b0       query_requests             00000001400070b0     api.o
 0003:000000d0       connections                00000001400070d0     api.o
 0003:000020d0       pages                      00000001400090d0     api.o
 0003:00002cd0       next_local_id              0000000140009cd0     remote.o
 0003:00002cd8       hIOCP                      0000000140009cd8     remote.o
 0003:00002ce0       data_buffer_end            0000000140009ce0     runtime_lib.o
 0003:00002ce8       data_buffer                0000000140009ce8     runtime_lib.o
 0003:00002cf0       commited                   0000000140009cf0     runtime_lib.o
 0003:00002cf8       hInput                     0000000140009cf8     runtime_lib.o
 0003:00002d00       buf                        0000000140009d00     runtime_lib.o
 0003:00003d00       hOutput                    000000014000ad00     runtime_lib.o
 0003:00003d08       frequency                  000000014000ad08     runtime_lib.o
 0003:00003d10       Workers                    000000014000ad10     runtime.o
 0003:00004670       wait_list_len              000000014000b670     runtime.o
 0003:00004678       queue_len                  000000014000b678     runtime.o
 0003:00004680       wait_list                  000000014000b680     runtime.o
 0003:000049a0       queue                      000000014000b9a0     runtime.o
 0003:00004cc0       ShedulerBuffer             000000014000bcc0     runtime.o
 0003:00004d10       defined_arrays             000000014000bd10     runtime.o
 0004:00000400       context                    000000014000c400     asm.o

 entry point at         0001:00004380

 Static symbols

 0001:00001a90       Worker                     0000000140002a90     remote.o
 0001:00002760       ConnectionListnerWorker    0000000140003760     remote.o
 0001:00002a60       PagesAllocator             0000000140003a60     remote.o
 0001:000046e4       .text                      00000001400056e4     asm.o
 0004:00000000       .data                      000000014000c000     asm.o
